EXPORTS
 "_gmwm_acf"
 "_gmwm_acf_sum"
 "_gmwm_all_bootstrapper"
 "_gmwm_ar1_draw"
 "_gmwm_ar1_to_gm"
 "_gmwm_ar1_to_wv"
 "_gmwm_arma_adapter"
 "_gmwm_arma_draws"
 "_gmwm_arma_to_wv"
 "_gmwm_arma_to_wv_app"
 "_gmwm_arma11_to_wv"
 "_gmwm_ARMAacf_cpp"
 "_gmwm_ARMAtoMA_cpp"
 "_gmwm_auto_imu_cpp"
 "_gmwm_avar_mo_cpp"
 "_gmwm_avar_to_cpp"
 "_gmwm_B_matrix"
 "_gmwm_batch_modwt_wvar_cpp"
 "_gmwm_bl14_filter"
 "_gmwm_bl20_filter"
 "_gmwm_boot_pval_gof"
 "_gmwm_bootstrap_gof_test"
 "_gmwm_brick_wall"
 "_gmwm_build_model_set"
 "_gmwm_calculate_psi_matrix"
 "_gmwm_cfilter"
 "_gmwm_ci_eta3"
 "_gmwm_ci_eta3_robust"
 "_gmwm_ci_wave_variance"
 "_gmwm_code_zero"
 "_gmwm_compute_cov_cpp"
 "_gmwm_count_models"
 "_gmwm_cov_bootstrapper"
 "_gmwm_D_matrix"
 "_gmwm_d16_filter"
 "_gmwm_d4_filter"
 "_gmwm_d6_filter"
 "_gmwm_d8_filter"
 "_gmwm_decomp_theoretical_wv"
 "_gmwm_decomp_to_theo_wv"
 "_gmwm_deriv_2nd_ar1"
 "_gmwm_deriv_2nd_arma11"
 "_gmwm_deriv_2nd_dr"
 "_gmwm_deriv_2nd_ma1"
 "_gmwm_deriv_ar1"
 "_gmwm_deriv_arma11"
 "_gmwm_deriv_dr"
 "_gmwm_deriv_ma1"
 "_gmwm_deriv_qn"
 "_gmwm_deriv_rw"
 "_gmwm_deriv_wn"
 "_gmwm_derivative_first_matrix"
 "_gmwm_dft_acf"
 "_gmwm_diff_cpp"
 "_gmwm_diff_inv"
 "_gmwm_diff_inv_values"
 "_gmwm_do_polyroot_arma"
 "_gmwm_do_polyroot_cpp"
 "_gmwm_dr_to_wv"
 "_gmwm_dwt_cpp"
 "_gmwm_e_drift"
 "_gmwm_fast_cov_cpp"
 "_gmwm_field_to_matrix"
 "_gmwm_find_full_model"
 "_gmwm_fk14_filter"
 "_gmwm_fk22_filter"
 "_gmwm_fk4_filter"
 "_gmwm_fk6_filter"
 "_gmwm_fk8_filter"
 "_gmwm_format_ci"
 "_gmwm_gen_ar1"
 "_gmwm_gen_arima"
 "_gmwm_gen_arma"
 "_gmwm_gen_arma11"
 "_gmwm_gen_dr"
 "_gmwm_gen_generic_sarima"
 "_gmwm_gen_lts_cpp"
 "_gmwm_gen_ma1"
 "_gmwm_gen_model"
 "_gmwm_gen_qn"
 "_gmwm_gen_rw"
 "_gmwm_gen_sarima"
 "_gmwm_gen_sarma"
 "_gmwm_gen_wn"
 "_gmwm_get_summary"
 "_gmwm_getObjFun"
 "_gmwm_getObjFunStarting"
 "_gmwm_gm_to_ar1"
 "_gmwm_gmwm_engine"
 "_gmwm_gmwm_master_cpp"
 "_gmwm_gmwm_param_bootstrapper"
 "_gmwm_gmwm_sd_bootstrapper"
 "_gmwm_gmwm_update_cpp"
 "_gmwm_gof_test"
 "_gmwm_guess_initial"
 "_gmwm_guess_initial_old"
 "_gmwm_haar_filter"
 "_gmwm_hadam_mo_cpp"
 "_gmwm_hadam_to_cpp"
 "_gmwm_idf_arma"
 "_gmwm_idf_arma_total"
 "_gmwm_intgr_vec"
 "_gmwm_invert_check"
 "_gmwm_jacobian_arma"
 "_gmwm_la16_filter"
 "_gmwm_la20_filter"
 "_gmwm_la8_filter"
 "_gmwm_lm_arma"
 "_gmwm_lm_dr"
 "_gmwm_logit"
 "_gmwm_logit_inv"
 "_gmwm_logit2"
 "_gmwm_logit2_inv"
 "_gmwm_m2_drift"
 "_gmwm_ma1_to_wv"
 "_gmwm_mb16_filter"
 "_gmwm_mb24_filter"
 "_gmwm_mb4_filter"
 "_gmwm_mb8_filter"
 "_gmwm_mean_diff"
 "_gmwm_minroot"
 "_gmwm_Mod_cpp"
 "_gmwm_Mod_squared_cpp"
 "_gmwm_model_objdesc"
 "_gmwm_model_process_desc"
 "_gmwm_model_score"
 "_gmwm_model_theta"
 "_gmwm_modwt_cpp"
 "_gmwm_modwt_wvar_cpp"
 "_gmwm_num_rep"
 "_gmwm_obj_extract"
 "_gmwm_opt_n_gof_bootstrapper"
 "_gmwm_optimism_bootstrapper"
 "_gmwm_order_AR1s"
 "_gmwm_pseudo_logit"
 "_gmwm_pseudo_logit_inv"
 "_gmwm_qmf"
 "_gmwm_qn_to_wv"
 "_gmwm_quantile_cpp"
 "_gmwm_rank_models_cpp"
 "_gmwm_Rcpp_ARIMA"
 "_gmwm_read_imu"
 "_gmwm_rev_col_subset"
 "_gmwm_rev_row_subset"
 "_gmwm_reverse_vec"
 "_gmwm_rfilter"
 "_gmwm_rtruncated_normal"
 "_gmwm_rw_to_wv"
 "_gmwm_sarma_calculate_spadding"
 "_gmwm_sarma_components"
 "_gmwm_sarma_expand"
 "_gmwm_sarma_expand_unguided"
 "_gmwm_sarma_objdesc"
 "_gmwm_sarma_params_construct"
 "_gmwm_scales_cpp"
 "_gmwm_select_filter"
 "_gmwm_seq_cpp"
 "_gmwm_seq_len_cpp"
 "_gmwm_set_seed"
 "_gmwm_sort_mat"
 "_gmwm_sum_field_vec"
 "_gmwm_theoretical_wv"
 "_gmwm_theta_ci"
 "_gmwm_transform_values"
 "_gmwm_untransform_values"
 "_gmwm_var_drift"
 "_gmwm_vector_to_set"
 "_gmwm_w4_filter"
 "_gmwm_wave_variance"
 "_gmwm_wn_to_wv"
 "_gmwm_wvar_cpp"
 "_Z13get_last_callv"
 "_Z19string_to_try_errorRKSs"
 "_Z31exception_to_condition_templateIN4Rcpp9exceptionEEP7SEXPRECRKT_b"
 "_Z31exception_to_condition_templateISt9exceptionEP7SEXPRECRKT_b"
 "_ZGVN4arma5DatumIdE3nanE"
 "_ZGVN4arma5DatumIiE3nanE"
 "_ZGVZ11stack_tracePKciE3fun"
 "_ZGVZ19char_get_string_eltP7SEXPRECxE3fun"
 "_ZGVZ20rcpp_get_stack_tracevE3fun"
 "_ZGVZ20rcpp_set_stack_traceP7SEXPRECE3fun"
 "_ZGVZ7dataptrP7SEXPRECE3fun"
 "_ZGVZ8demangleRKSsE3fun"
 "_ZGVZN4Rcpp8internal12exitRNGScopeEvE3fun"
 "_ZGVZN4Rcpp8internal13enterRNGScopeEvE3fun"
 "_ZN10tinyformat6detail10formatImplERSoPKcPKNS0_9FormatArgEi"
 "_ZN10tinyformat6detail15formatTruncatedIiEEvRSoRKT_i"
 "_ZN10tinyformat6detail21streamStateFromFormatERSoRbRiPKcPKNS0_9FormatArgES3_i"
 "_ZN10tinyformat6detail9FormatArg10formatImplIiEEvRSoPKcS5_iPKv"
 "_ZN10tinyformat6detail9FormatArg10formatImplIPKcEEvRSoS4_S4_iPKv"
 "_ZN10tinyformat6detail9FormatArg9toIntImplIiEEiPKv"
 "_ZN10tinyformat6detail9FormatArg9toIntImplIPKcEEiPKv"
 "_ZN10tinyformat6formatIIEEESsPKcDpRKT_"
 "_ZN10tinyformat6formatIIiEEESsPKcDpRKT_"
 "_ZN10tinyformat6formatIIPKcEEESsS2_DpRKT_"
 "_ZN10tinyformat6formatIIPKciEEESsS2_DpRKT_"
 "_ZN10tinyformat6formatIIPKcS2_EEESsS2_DpRKT_"
 "_ZN4arma3MatIdE9init_warmEjj"
 "_ZN4arma3MatIdED1Ev"
 "_ZN4arma3MatIdED2Ev"
 "_ZN4arma3MatISt7complexIdEED2Ev"
 "_ZN4arma4CubeIdED1Ev"
 "_ZN4arma5DatumIdE3nanE"
 "_ZN4arma5DatumIiE3nanE"
 "_ZN4arma5fieldINS_3ColIdEEE4initEjjj"
 "_ZN4arma5fieldINS_3ColIdEEED1Ev"
 "_ZN4arma5fieldINS_3MatIdEEED1Ev"
 "_ZN4arma5fieldINS0_INS0_INS_3MatIdEEEEEEED1Ev"
 "_ZN4arma8arrayops10copy_smallIdEEvPT_PKS2_j"
 "_ZN4Rcpp10eval_errorD0Ev"
 "_ZN4Rcpp10eval_errorD1Ev"
 "_ZN4Rcpp10RstreambufILb0EE4syncEv"
 "_ZN4Rcpp10RstreambufILb0EE6xsputnEPKcx"
 "_ZN4Rcpp10RstreambufILb0EE8overflowEi"
 "_ZN4Rcpp10RstreambufILb0EED0Ev"
 "_ZN4Rcpp10RstreambufILb0EED1Ev"
 "_ZN4Rcpp10RstreambufILb1EE4syncEv"
 "_ZN4Rcpp10RstreambufILb1EE6xsputnEPKcx"
 "_ZN4Rcpp10RstreambufILb1EE8overflowEi"
 "_ZN4Rcpp10RstreambufILb1EED0Ev"
 "_ZN4Rcpp10RstreambufILb1EED1Ev"
 "_ZN4Rcpp12not_a_matrixD0Ev"
 "_ZN4Rcpp12not_a_matrixD1Ev"
 "_ZN4Rcpp13RcppArmadillo9arma_wrapIN4arma3ColIdEEEEP7SEXPRECRKT_RKNS_9DimensionE"
 "_ZN4Rcpp13RcppArmadillo9arma_wrapIN4arma3ColISt7complexIdEEEEEP7SEXPRECRKT_RKNS_9DimensionE"
 "_ZN4Rcpp13RcppArmadillo9arma_wrapIN4arma3MatIdEEEEP7SEXPRECRKT_RKNS_9DimensionE"
 "_ZN4Rcpp13RcppArmadillo9arma_wrapIN4arma4CubeIdEEEEP7SEXPRECRKT_RKNS_9DimensionE"
 "_ZN4Rcpp14not_compatibleC1IIiEEEPKcDpOT_"
 "_ZN4Rcpp14not_compatibleC1IIPKcEEES3_DpOT_"
 "_ZN4Rcpp14not_compatibleC1IIPKcS3_EEES3_DpOT_"
 "_ZN4Rcpp14not_compatibleD0Ev"
 "_ZN4Rcpp14not_compatibleD1Ev"
 "_ZN4Rcpp20AttributeProxyPolicyINS_12RObject_ImplINS_15PreserveStorageEEEE14AttributeProxyaSINS_9DimensionEEERS5_RKT_"
 "_ZN4Rcpp22ArmaMat_InputParameterIdN4arma3MatIdEERKS3_NS_6traits17integral_constantIbLb0EEEEC2EP7SEXPREC"
 "_ZN4Rcpp22ArmaMat_InputParameterIdN4arma3MatIdEERKS3_NS_6traits17integral_constantIbLb0EEEED2Ev"
 "_ZN4Rcpp22ArmaMat_InputParameterIdN4arma3MatIdEERS3_NS_6traits17integral_constantIbLb0EEEED2Ev"
 "_ZN4Rcpp22ArmaVec_InputParameterIdN4arma3ColIdEERKS3_NS_6traits17integral_constantIbLb0EEEEC2EP7SEXPREC"
 "_ZN4Rcpp22ArmaVec_InputParameterIdN4arma3ColIdEERKS3_NS_6traits17integral_constantIbLb0EEEED2Ev"
 "_ZN4Rcpp22ArmaVec_InputParameterIdN4arma3ColIdEERS3_NS_6traits17integral_constantIbLb0EEEED2Ev"
 "_ZN4Rcpp22ArmaVec_InputParameterISt7complexIdEN4arma3ColIS2_EERKS5_NS_6traits17integral_constantIbLb1EEEED2Ev"
 "_ZN4Rcpp4stopERKSs"
 "_ZN4Rcpp4stopIIEEEvPKcDpOT_"
 "_ZN4Rcpp4wrapIdEEP7SEXPRECRKN4arma3ColIT_EE"
 "_ZN4Rcpp4wrapIdEEP7SEXPRECRKN4arma3MatIT_EE"
 "_ZN4Rcpp4wrapIN4arma3ColIdEEEEP7SEXPRECRKNS1_5fieldIT_EE"
 "_ZN4Rcpp4wrapIN4arma3MatIdEEEEP7SEXPRECRKNS1_5fieldIT_EE"
 "_ZN4Rcpp4wrapIN4arma5fieldINS1_3MatIdEEEEEEP7SEXPRECRKNS2_IT_EE"
 "_ZN4Rcpp4wrapIN4arma5fieldINS2_INS1_3MatIdEEEEEEEEP7SEXPRECRKNS2_IT_EE"
 "_ZN4Rcpp6r_castILi14EEEP7SEXPRECS2_"
 "_ZN4Rcpp6r_castILi15EEEP7SEXPRECS2_"
 "_ZN4Rcpp6traits13RangeExporterISt6vectorISsSaISsEEE3getEv"
 "_ZN4Rcpp6traits14MatrixExporterIN4arma3MatIdEEdE3getEv"
 "_ZN4Rcpp8internal10basic_castILi10EEEP7SEXPRECS3_"
 "_ZN4Rcpp8internal10basic_castILi13EEEP7SEXPRECS3_"
 "_ZN4Rcpp8internal10basic_castILi14EEEP7SEXPRECS3_"
 "_ZN4Rcpp8internal10basic_castILi15EEEP7SEXPRECS3_"
 "_ZN4Rcpp8internal10resumeJumpEP7SEXPREC"
 "_ZN4Rcpp8internal12exitRNGScopeEv"
 "_ZN4Rcpp8internal12primitive_asIbEET_P7SEXPREC"
 "_ZN4Rcpp8internal12primitive_asIdEET_P7SEXPREC"
 "_ZN4Rcpp8internal12primitive_asIiEET_P7SEXPREC"
 "_ZN4Rcpp8internal12primitive_asIjEET_P7SEXPREC"
 "_ZN4Rcpp8internal13enterRNGScopeEv"
 "_ZN4Rcpp8internal21export_indexing__implIN4arma3ColIdEEdEEvP7SEXPRECRT_NS_6traits17integral_constantIbLb0EEE"
 "_ZN4Rcpp8internal21export_indexing__implIN4arma3ColISt7complexIdEEES5_EEvP7SEXPRECRT_NS_6traits17integral_constantIbLb1EEE"
 "_ZN4Rcpp8internal21export_indexing__implIN4arma3MatIdEEdEEvP7SEXPRECRT_NS_6traits17integral_constantIbLb0EEE"
 "_ZN4Rcpp8internal22export_range__dispatchIN9__gnu_cxx17__normal_iteratorIPSsSt6vectorISsSaISsEEEESsEEvP7SEXPRECT_NS_6traits17r_type_string_tagE"
 "_ZN4Rcpp8internal29range_wrap_dispatch___genericISt23_Rb_tree_const_iteratorISt6vectorISsSaISsEEES5_EEP7SEXPRECT_S9_"
 "_ZN4Rcpp8internal3nthEP7SEXPRECi"
 "_ZN4Rcpp8RostreamILb0EED0Ev"
 "_ZN4Rcpp8RostreamILb0EED1Ev"
 "_ZN4Rcpp8RostreamILb1EED0Ev"
 "_ZN4Rcpp8RostreamILb1EED1Ev"
 "_ZN4Rcpp9exceptionC1EPKcb"
 "_ZN4Rcpp9exceptionD0Ev"
 "_ZN4Rcpp9exceptionD1Ev"
 "_ZN4Rcpp9Rcpp_evalEP7SEXPRECS1_"
 "_ZNK4Rcpp10eval_error4whatEv"
 "_ZNK4Rcpp12not_a_matrix4whatEv"
 "_ZNK4Rcpp14not_compatible4whatEv"
 "_ZNK4Rcpp9exception4whatEv"
 "_ZNKSt5ctypeIcE8do_widenEc"
 "_ZNSt15basic_stringbufIcSt11char_traitsIcESaIcEED1Ev"
 "_ZNSt6vectorIS_ISsSaISsEESaIS1_EED1Ev"
 "_ZNSt6vectorISsSaISsEED1Ev"
 "_ZNSt8_Rb_treeISsSt4pairIKSsiESt10_Select1stIS2_ESt4lessISsESaIS2_EE8_M_eraseEPSt13_Rb_tree_nodeIS2_E"
 "_ZNSt8_Rb_treeISt6vectorISsSaISsEES2_St9_IdentityIS2_ESt4lessIS2_ESaIS2_EE8_M_eraseEPSt13_Rb_tree_nodeIS2_E"
 "_ZTCN4Rcpp8RostreamILb0EEE0_So"
 "_ZTCN4Rcpp8RostreamILb1EEE0_So"
 "_ZTIN4Rcpp10eval_errorE"
 "_ZTIN4Rcpp10RstreambufILb0EEE"
 "_ZTIN4Rcpp10RstreambufILb1EEE"
 "_ZTIN4Rcpp12not_a_matrixE"
 "_ZTIN4Rcpp14not_compatibleE"
 "_ZTIN4Rcpp17LongjumpExceptionE"
 "_ZTIN4Rcpp8internal20InterruptedExceptionE"
 "_ZTIN4Rcpp8RostreamILb0EEE"
 "_ZTIN4Rcpp8RostreamILb1EEE"
 "_ZTIN4Rcpp9exceptionE"
 "_ZTISt11logic_error"
 "_ZTISt9bad_alloc"
 "_ZTISt9exception"
 "_ZTSN4Rcpp10eval_errorE"
 "_ZTSN4Rcpp10RstreambufILb0EEE"
 "_ZTSN4Rcpp10RstreambufILb1EEE"
 "_ZTSN4Rcpp12not_a_matrixE"
 "_ZTSN4Rcpp14not_compatibleE"
 "_ZTSN4Rcpp17LongjumpExceptionE"
 "_ZTSN4Rcpp8internal20InterruptedExceptionE"
 "_ZTSN4Rcpp8RostreamILb0EEE"
 "_ZTSN4Rcpp8RostreamILb1EEE"
 "_ZTSN4Rcpp9exceptionE"
 "_ZTSSt11logic_error"
 "_ZTSSt9bad_alloc"
 "_ZTSSt9exception"
 "_ZTTN4Rcpp8RostreamILb0EEE"
 "_ZTTN4Rcpp8RostreamILb1EEE"
 "_ZTv0_n24_N4Rcpp8RostreamILb0EED0Ev"
 "_ZTv0_n24_N4Rcpp8RostreamILb0EED1Ev"
 "_ZTv0_n24_N4Rcpp8RostreamILb1EED0Ev"
 "_ZTv0_n24_N4Rcpp8RostreamILb1EED1Ev"
 "_ZTVN4Rcpp10eval_errorE"
 "_ZTVN4Rcpp10RstreambufILb0EEE"
 "_ZTVN4Rcpp10RstreambufILb1EEE"
 "_ZTVN4Rcpp12not_a_matrixE"
 "_ZTVN4Rcpp14not_compatibleE"
 "_ZTVN4Rcpp8RostreamILb0EEE"
 "_ZTVN4Rcpp8RostreamILb1EEE"
 "_ZTVN4Rcpp9exceptionE"
 "_ZZ11stack_tracePKciE3fun"
 "_ZZ19char_get_string_eltP7SEXPRECxE3fun"
 "_ZZ20rcpp_get_stack_tracevE3fun"
 "_ZZ20rcpp_set_stack_traceP7SEXPRECE3fun"
 "_ZZ7dataptrP7SEXPRECE3fun"
 "_ZZ8demangleRKSsE3fun"
 "_ZZN4arma16arma_cerr_streamIcEERSoPSoE11cerr_stream"
 "_ZZN4Rcpp8internal12exitRNGScopeEvE3fun"
 "_ZZN4Rcpp8internal13enterRNGScopeEvE3fun"
 "R_init_gmwm"
 "_Z7e_driftdi"
 "_Z8m2_driftdi"
 "_Z9var_driftdi"
 "_ZGVN4arma5DatumIdE3nanE"
 "_ZGVN4arma5DatumIiE3nanE"
 "_ZN4arma16gemv_emul_tinysqILb0ELb0ELb0EE5applyIdNS_3ColIdEEEEvPT_RKT0_PKS5_S5_S5_"
 "_ZN4arma16gemv_emul_tinysqILb1ELb0ELb0EE5applyIdNS_3ColIdEEEEvPT_RKT0_PKS5_S5_S5_"
 "_ZN4arma3MatIdE9init_warmEjj"
 "_ZN4arma3MatIdED1Ev"
 "_ZN4arma3MatIdED2Ev"
 "_ZN4arma5DatumIdE3nanE"
 "_ZN4arma5DatumIiE3nanE"
 "_ZN4arma8arrayops17inplace_set_smallIdEEvPT_S2_j"
 "_ZN4Rcpp10RstreambufILb0EE4syncEv"
 "_ZN4Rcpp10RstreambufILb0EE6xsputnEPKcx"
 "_ZN4Rcpp10RstreambufILb0EE8overflowEi"
 "_ZN4Rcpp10RstreambufILb0EED0Ev"
 "_ZN4Rcpp10RstreambufILb0EED1Ev"
 "_ZN4Rcpp10RstreambufILb1EE4syncEv"
 "_ZN4Rcpp10RstreambufILb1EE6xsputnEPKcx"
 "_ZN4Rcpp10RstreambufILb1EE8overflowEi"
 "_ZN4Rcpp10RstreambufILb1EED0Ev"
 "_ZN4Rcpp10RstreambufILb1EED1Ev"
 "_ZN4Rcpp8RostreamILb0EED0Ev"
 "_ZN4Rcpp8RostreamILb0EED1Ev"
 "_ZN4Rcpp8RostreamILb1EED0Ev"
 "_ZN4Rcpp8RostreamILb1EED1Ev"
 "_ZTCN4Rcpp8RostreamILb0EEE0_So"
 "_ZTCN4Rcpp8RostreamILb1EEE0_So"
 "_ZTIN4Rcpp10RstreambufILb0EEE"
 "_ZTIN4Rcpp10RstreambufILb1EEE"
 "_ZTIN4Rcpp8RostreamILb0EEE"
 "_ZTIN4Rcpp8RostreamILb1EEE"
 "_ZTISt11logic_error"
 "_ZTISt13runtime_error"
 "_ZTISt9bad_alloc"
 "_ZTISt9exception"
 "_ZTSN4Rcpp10RstreambufILb0EEE"
 "_ZTSN4Rcpp10RstreambufILb1EEE"
 "_ZTSN4Rcpp8RostreamILb0EEE"
 "_ZTSN4Rcpp8RostreamILb1EEE"
 "_ZTSSt11logic_error"
 "_ZTSSt13runtime_error"
 "_ZTSSt9bad_alloc"
 "_ZTSSt9exception"
 "_ZTTN4Rcpp8RostreamILb0EEE"
 "_ZTTN4Rcpp8RostreamILb1EEE"
 "_ZTv0_n24_N4Rcpp8RostreamILb0EED0Ev"
 "_ZTv0_n24_N4Rcpp8RostreamILb0EED1Ev"
 "_ZTv0_n24_N4Rcpp8RostreamILb1EED0Ev"
 "_ZTv0_n24_N4Rcpp8RostreamILb1EED1Ev"
 "_ZTVN4Rcpp10RstreambufILb0EEE"
 "_ZTVN4Rcpp10RstreambufILb1EEE"
 "_ZTVN4Rcpp8RostreamILb0EEE"
 "_ZTVN4Rcpp8RostreamILb1EEE"
 "_ZZN4arma16arma_cerr_streamIcEERSoPSoE11cerr_stream"
 "_Z11avar_mo_cppN4arma3ColIdEE"
 "_Z11avar_to_cppN4arma3ColIdEE"
 "_ZGVN4arma5DatumIdE3nanE"
 "_ZGVN4arma5DatumIiE3nanE"
 "_ZN4arma3MatIdED2Ev"
 "_ZN4arma5DatumIdE3nanE"
 "_ZN4arma5DatumIiE3nanE"
 "_ZN4arma8arrayops17inplace_set_smallIdEEvPT_S2_j"
 "_ZN4Rcpp10RstreambufILb0EE4syncEv"
 "_ZN4Rcpp10RstreambufILb0EE6xsputnEPKcx"
 "_ZN4Rcpp10RstreambufILb0EE8overflowEi"
 "_ZN4Rcpp10RstreambufILb0EED0Ev"
 "_ZN4Rcpp10RstreambufILb0EED1Ev"
 "_ZN4Rcpp10RstreambufILb1EE4syncEv"
 "_ZN4Rcpp10RstreambufILb1EE6xsputnEPKcx"
 "_ZN4Rcpp10RstreambufILb1EE8overflowEi"
 "_ZN4Rcpp10RstreambufILb1EED0Ev"
 "_ZN4Rcpp10RstreambufILb1EED1Ev"
 "_ZN4Rcpp8RostreamILb0EED0Ev"
 "_ZN4Rcpp8RostreamILb0EED1Ev"
 "_ZN4Rcpp8RostreamILb1EED0Ev"
 "_ZN4Rcpp8RostreamILb1EED1Ev"
 "_ZTCN4Rcpp8RostreamILb0EEE0_So"
 "_ZTCN4Rcpp8RostreamILb1EEE0_So"
 "_ZTIN4Rcpp10RstreambufILb0EEE"
 "_ZTIN4Rcpp10RstreambufILb1EEE"
 "_ZTIN4Rcpp8RostreamILb0EEE"
 "_ZTIN4Rcpp8RostreamILb1EEE"
 "_ZTISt11logic_error"
 "_ZTISt9bad_alloc"
 "_ZTISt9exception"
 "_ZTSN4Rcpp10RstreambufILb0EEE"
 "_ZTSN4Rcpp10RstreambufILb1EEE"
 "_ZTSN4Rcpp8RostreamILb0EEE"
 "_ZTSN4Rcpp8RostreamILb1EEE"
 "_ZTSSt11logic_error"
 "_ZTSSt9bad_alloc"
 "_ZTSSt9exception"
 "_ZTTN4Rcpp8RostreamILb0EEE"
 "_ZTTN4Rcpp8RostreamILb1EEE"
 "_ZTv0_n24_N4Rcpp8RostreamILb0EED0Ev"
 "_ZTv0_n24_N4Rcpp8RostreamILb0EED1Ev"
 "_ZTv0_n24_N4Rcpp8RostreamILb1EED0Ev"
 "_ZTv0_n24_N4Rcpp8RostreamILb1EED1Ev"
 "_ZTVN4Rcpp10RstreambufILb0EEE"
 "_ZTVN4Rcpp10RstreambufILb1EEE"
 "_ZTVN4Rcpp8RostreamILb0EEE"
 "_ZTVN4Rcpp8RostreamILb1EEE"
 "_ZZN4arma16arma_cerr_streamIcEERSoPSoE11cerr_stream"
 "_Z12arma_adapterRKN4arma3ColIdEEjjS3_"
 "_Z12deriv_2nd_drRKN4arma3ColIdEE"
 "_Z12deriv_arma11dddRKN4arma3ColIdEE"
 "_Z13deriv_2nd_ar1ddRKN4arma3ColIdEE"
 "_Z13deriv_2nd_ma1ddRKN4arma3ColIdEE"
 "_Z13jacobian_armaRKN4arma3ColIdEEjjS3_"
 "_Z16deriv_2nd_arma11dddRKN4arma3ColIdEE"
 "_Z23derivative_first_matrixRKN4arma3ColIdEERKSt6vectorISsSaISsEERKNS_5fieldIS1_EES3_"
 "_Z8D_matrixRKN4arma3ColIdEERKSt6vectorISsSaISsEERKNS_5fieldIS1_EES3_S3_"
 "_Z8deriv_drdRKN4arma3ColIdEE"
 "_Z8deriv_qnRKN4arma3ColIdEE"
 "_Z8deriv_rwRKN4arma3ColIdEE"
 "_Z8deriv_wnRKN4arma3ColIdEE"
 "_Z9deriv_ar1ddRKN4arma3ColIdEE"
 "_Z9deriv_ma1ddRKN4arma3ColIdEE"
 "_ZGVN4arma5DatumIdE3nanE"
 "_ZGVN4arma5DatumIiE3nanE"
 "_ZN4arma10eglue_coreINS_11eglue_schurEE5applyINS_3MatIdEENS_3eOpINS6_INS_3ColIdEENS_16eop_scalar_timesEEENS_18eop_scalar_div_preEEENS_5eGlueINSD_INSD_INS6_IS8_NS_15eop_scalar_plusEEENSD_ISA_NSD_INS6_IS8_NS_20eop_scalar_minus_preEEENS6_INS6_INS6_ISF_S9_EESE_EES9_EENS_10eglue_plusEEES1_EENS_11eglue_minusEEENSD_IS8_SM_S1_EESL_EENS6_INSD_ISH_NS6_INSD_ISF_SA_SL_EES9_EESL_EES9_EESO_EEEEvRT_RKNSD_IT0_T1_S1_EE"
 "_ZN4arma10eglue_coreINS_9eglue_divEE5applyINS_3MatIdEENS_3eOpINS_5eGlueINS6_INS_3ColIdEENS_16eop_scalar_timesEEENS6_INS6_INS7_IS9_SB_NS_11eglue_minusEEENS_15eop_scalar_plusEEESA_EENS_10eglue_plusEEESA_EESB_EEvRT_RKNS7_IT0_T1_S1_EE"
 "_ZN4arma10eglue_coreINS_9eglue_divEE5applyINS_3MatIdEENS_3eOpINS_5eGlueINS6_INS6_INS7_INS6_INS6_INS_3ColIdEENS_16eop_scalar_timesEEENS_20eop_scalar_minus_preEEES9_NS_10eglue_plusEEENS_7eop_negEEESA_EENS7_INS6_ISF_SA_EES9_NS_11eglue_schurEEESE_EESA_EESB_EEvRT_RKNS7_IT0_T1_S1_EE"
 "_ZN4arma10eglue_coreINS_9eglue_divEE5applyINS_3MatIdEENS_3eOpINS_5eGlueINS6_INS6_INS7_INS6_INS6_INS_3ColIdEENS_16eop_scalar_timesEEENS_20eop_scalar_minus_preEEES9_NS_10eglue_plusEEENS_7eop_negEEESA_EENS7_INS7_INS6_INS6_INS6_INS6_ISB_SA_EESA_EESA_EESC_EESK_SE_EES9_NS_11eglue_schurEEESE_EESA_EESB_EEvRT_RKNS7_IT0_T1_S1_EE"
 "_ZN4arma10eglue_coreINS_9eglue_divEE5applyINS_3MatIdEENS_3eOpINS_5eGlueINS6_INS6_INS7_INS6_INS6_INS_3ColIdEENS_16eop_scalar_timesEEENS_20eop_scalar_minus_preEEES9_NS_10eglue_plusEEESA_EESA_EENS7_INS7_INS6_INS6_INS6_ISB_SA_EESA_EENS_15eop_scalar_plusEEESI_NS_11eglue_minusEEES9_NS_11eglue_schurEEESE_EESA_EESB_EEvRT_RKNS7_IT0_T1_S1_EE"
 "_ZN4arma10eglue_coreINS_9eglue_divEE5applyINS_3MatIdEENS_3eOpINS_5eGlueINS6_INS7_INS6_INS6_INS_3ColIdEENS_16eop_scalar_timesEEENS_20eop_scalar_minus_preEEES9_NS_10eglue_plusEEESA_EESB_NS_11eglue_minusEEESA_EESB_EEvRT_RKNS7_IT0_T1_S1_EE"
 "_ZN4arma10eglue_coreINS_9eglue_divEE5applyINS_3MatIdEENS_3eOpINS_5eGlueINS7_INS6_INS7_INS6_INS6_INS_3ColIdEENS_16eop_scalar_timesEEENS_20eop_scalar_minus_preEEES9_NS_10eglue_plusEEESA_EENS7_INS6_INS7_INS6_INS6_ISB_SA_EENS_15eop_scalar_plusEEESB_NS_11eglue_minusEEESA_EES9_NS_11eglue_schurEEESE_EENS6_INS7_INS7_IS9_NS6_IS9_SI_EESN_EES9_SN_EESA_EESE_EESA_EESB_EEvRT_RKNS7_IT0_T1_S1_EE"
 "_ZN4arma10eglue_coreINS_9eglue_divEE5applyINS_3MatIdEENS_3eOpINS_5eGlueINS7_INS6_INS7_INS6_INS7_INS6_INS6_INS_3ColIdEENS_16eop_scalar_timesEEENS_20eop_scalar_minus_preEEES9_NS_10eglue_plusEEESA_EESB_NS_11eglue_minusEEESA_EENS6_INS7_INS7_ISG_NS6_INS6_INS7_INS7_IS9_NS6_IS9_NS_15eop_scalar_plusEEENS_11eglue_schurEEES9_SM_EESA_EESA_EESE_EESQ_SE_EESA_EESE_EENS6_INS7_INS7_ISG_SB_SE_EENS6_INS7_INS7_INS7_ISG_SG_SH_EESB_SH_EESQ_SH_EESA_EESE_EESA_EESE_EESA_EESB_EEvRT_RKNS7_IT0_T1_S1_EE"
 "_ZN4arma10eglue_coreINS_9eglue_divEE5applyINS_3MatIdEENS_3eOpINS_5eGlueINS7_INS6_INS7_INS6_INS7_INS6_INS6_INS_3ColIdEENS_16eop_scalar_timesEEENS_20eop_scalar_minus_preEEES9_NS_10eglue_plusEEESA_EESB_NS_11eglue_minusEEESA_EESJ_SE_EENS6_INS7_INS7_INS7_ISG_SG_SH_EESB_SH_EENS6_INS6_INS7_INS7_IS9_NS6_IS9_NS_15eop_scalar_plusEEENS_11eglue_schurEEES9_SP_EESA_EESA_EESH_EESA_EESH_EESA_EESB_EEvRT_RKNS7_IT0_T1_S1_EE"
 "_ZN4arma15glue_mixed_plus5applyINS_3eOpINS2_INS_3ColIdEENS_16eop_scalar_timesEEENS_7eop_absEEENS2_INS_4mtOpIjNS2_IS4_S7_EENS_14op_rel_lt_postEEES5_EEEEvRNS_3MatINS_11eT_promoterIT_T0_E2eTEEERKNS_6mtGlueISJ_SG_SH_S0_EE"
 "_ZN4arma16gemv_emul_tinysqILb0ELb0ELb0EE5applyIdNS_3MatIdEEEEvPT_RKT0_PKS5_S5_S5_"
 "_ZN4arma16gemv_emul_tinysqILb1ELb0ELb0EE5applyIdNS_3ColIdEEEEvPT_RKT0_PKS5_S5_S5_"
 "_ZN4arma3MatIdE5resetEv"
 "_ZN4arma3MatIdE9init_coldEv"
 "_ZN4arma3MatIdE9init_warmEjj"
 "_ZN4arma3MatIdE9steal_memERS1_"
 "_ZN4arma3MatIdEaSERKNS_7subviewIdEE"
 "_ZN4arma3MatIdED1Ev"
 "_ZN4arma3MatIdED2Ev"
 "_ZN4arma3MatIjED1Ev"
 "_ZN4arma5DatumIdE3nanE"
 "_ZN4arma5DatumIiE3nanE"
 "_ZN4arma5fieldINS_3MatIdEEED1Ev"
 "_ZN4arma7subviewIdE10inplace_opINS_15op_internal_equEEEvRKS1_PKc"
 "_ZN4arma7subviewIdE10inplace_opINS_15op_internal_equENS_2OpINS_3MatIdEENS_9op_htransEEEEEvRKNS_4BaseIdT0_EEPKc"
 "_ZN4arma7subviewIdE10inplace_opINS_15op_internal_equENS_3MatIdEEEEvRKNS_4BaseIdT0_EEPKc"
 "_ZN4arma7subviewIdE10inplace_opINS_15op_internal_equENS_4GlueINS_3MatIdEENS_3ColIdEENS_10glue_timesEEEEEvRKNS_4BaseIdT0_EEPKc"
 "_ZN4arma7subviewIdE10inplace_opINS_15op_internal_equENS_5eGlueINS_3eOpINS4_INS4_INS5_INS4_INS5_INS4_INS5_INS5_INS_3ColIdEENS_16eop_scalar_timesEEENS_20eop_scalar_minus_preEEES7_NS_10eglue_plusEEES8_EES9_NS_11eglue_minusEEES8_EENS5_INS4_INS4_ISE_NS5_INS5_INS4_INS4_IS7_NS5_IS7_NS_15eop_scalar_plusEEENS_11eglue_schurEEES7_SK_EES8_EES8_EESC_EESO_SC_EES8_EESC_EENS5_INS4_INS4_ISE_S9_SC_EENS5_INS4_INS4_INS4_ISE_SE_SF_EES9_SF_EESO_SF_EES8_EESC_EES8_EESC_EES8_EES9_NS_9eglue_divEEEEEvRKNS_4BaseIdT0_EEPKc"
 "_ZN4arma7subviewIdE10inplace_opINS_15op_internal_equENS_5eGlueINS_3eOpINS4_INS4_INS5_INS4_INS5_INS4_INS5_INS5_INS_3ColIdEENS_16eop_scalar_timesEEENS_20eop_scalar_minus_preEEES7_NS_10eglue_plusEEES8_EES9_NS_11eglue_minusEEES8_EESH_SC_EENS5_INS4_INS4_INS4_ISE_SE_SF_EES9_SF_EENS5_INS5_INS4_INS4_IS7_NS5_IS7_NS_15eop_scalar_plusEEENS_11eglue_schurEEES7_SN_EES8_EES8_EESF_EES8_EESF_EES8_EES9_NS_9eglue_divEEEEEvRKNS_4BaseIdT0_EEPKc"
 "_ZN4arma7subviewIdE10inplace_opINS_15op_internal_equENS_5eGlueINS_3eOpINS4_INS4_INS5_INS4_INS5_INS5_INS_3ColIdEENS_16eop_scalar_timesEEENS_20eop_scalar_minus_preEEES7_NS_10eglue_plusEEES8_EENS4_INS5_INS4_INS5_INS5_IS9_S8_EENS_15eop_scalar_plusEEES9_NS_11eglue_minusEEES8_EES7_NS_11eglue_schurEEESC_EENS5_INS4_INS4_IS7_NS5_IS7_SG_EESL_EES7_SL_EES8_EESC_EES8_EES9_NS_9eglue_divEEEEEvRKNS_4BaseIdT0_EEPKc"
 "_ZN4arma7subviewIdE10inplace_opINS_15op_internal_equENS_5eGlueINS_3eOpINS4_INS5_INS4_INS5_INS5_INS_3ColIdEENS_16eop_scalar_timesEEENS_20eop_scalar_minus_preEEES7_NS_10eglue_plusEEES8_EES9_SC_EES8_EES9_NS_9eglue_divEEEEEvRKNS_4BaseIdT0_EEPKc"
 "_ZN4arma7subviewIdE10inplace_opINS_15op_internal_equENS_5eGlueINS_3eOpINS4_INS5_INS5_INS4_INS5_INS5_INS_3ColIdEENS_16eop_scalar_timesEEENS_20eop_scalar_minus_preEEES7_NS_10eglue_plusEEENS_7eop_negEEES8_EENS4_INS4_INS5_INS5_INS5_INS5_IS9_S8_EES8_EES8_EESA_EESI_SC_EES7_NS_11eglue_schurEEESC_EES8_EES9_NS_9eglue_divEEEEEvRKNS_4BaseIdT0_EEPKc"
 "_ZN4arma7subviewIdE10inplace_opINS_15op_internal_equENS_5eGlueINS_3eOpINS4_INS5_INS5_INS4_INS5_INS5_INS_3ColIdEENS_16eop_scalar_timesEEENS_20eop_scalar_minus_preEEES7_NS_10eglue_plusEEENS_7eop_negEEES8_EENS4_INS5_ISD_S8_EES7_NS_11eglue_schurEEESC_EES8_EES9_NS_9eglue_divEEEEEvRKNS_4BaseIdT0_EEPKc"
 "_ZN4arma7subviewIdE10inplace_opINS_15op_internal_equENS_5eGlueINS_3eOpINS4_INS5_INS5_INS4_INS5_INS5_INS_3ColIdEENS_16eop_scalar_timesEEENS_20eop_scalar_minus_preEEES7_NS_10eglue_plusEEES8_EES8_EENS4_INS4_INS5_INS5_INS5_IS9_S8_EES8_EENS_15eop_scalar_plusEEESG_NS_11eglue_minusEEES7_NS_11eglue_schurEEESC_EES8_EES9_NS_9eglue_divEEEEEvRKNS_4BaseIdT0_EEPKc"
 "_ZN4arma7subviewIdE10inplace_opINS_15op_internal_equENS_5eGlueINS_3eOpINS5_INS_3ColIdEENS_16eop_scalar_timesEEENS_18eop_scalar_div_preEEENS4_INS4_INS4_INS5_IS7_NS_15eop_scalar_plusEEENS4_IS9_NS4_INS5_IS7_NS_20eop_scalar_minus_preEEENS5_INS5_INS5_ISD_S8_EESC_EES8_EENS_10eglue_plusEEENS_11eglue_schurEEENS_11eglue_minusEEENS4_IS7_SK_SL_EESJ_EENS5_INS4_ISF_NS5_INS4_ISD_S9_SJ_EES8_EESJ_EES8_EESN_EESL_EEEEvRKNS_4BaseIdT0_EEPKc"
 "_ZN4arma7subviewIdE10inplace_opINS_15op_internal_equENS_5eGlueINS4_INS_3eOpINS5_INS4_INS4_INS5_INS_3ColIdEENS_16eop_scalar_timesEEES9_NS_10eglue_plusEEES9_SA_EENS_15eop_scalar_plusEEES8_EES7_NS_11eglue_minusEEES9_NS_9eglue_divEEEEEvRKNS_4BaseIdT0_EEPKc"
 "_ZN4arma8arrayops10copy_smallIdEEvPT_PKS2_j"
 "_ZN4arma8arrayops17inplace_set_smallIdEEvPT_S2_j"
 "_ZN4arma8eop_coreINS_18eop_scalar_div_preEE5applyINS_3MatIdEENS_3eOpINS_3ColIdEENS_10eop_squareEEEEEvRT_RKNS6_IT0_S1_EE"
 "_ZN4arma8eop_coreINS_21eop_scalar_minus_postEE5applyINS_3MatIdEENS_3ColIdEEEEvRT_RKNS_3eOpIT0_S1_EE"
 "_ZN4arma9op_strans17apply_mat_noaliasIdNS_3MatIdEEEEvRNS2_IT_EERKT0_"
 "_ZN4arma9op_strans23apply_mat_noalias_largeIdEEvRNS_3MatIT_EERKS4_"
 "_ZN4arma9op_strans24apply_mat_noalias_tinysqIdNS_3MatIdEEEEvRNS2_IT_EERKT0_"
 "_ZN4Rcpp10RstreambufILb0EE4syncEv"
 "_ZN4Rcpp10RstreambufILb0EE6xsputnEPKcx"
 "_ZN4Rcpp10RstreambufILb0EE8overflowEi"
 "_ZN4Rcpp10RstreambufILb0EED0Ev"
 "_ZN4Rcpp10RstreambufILb0EED1Ev"
 "_ZN4Rcpp10RstreambufILb1EE4syncEv"
 "_ZN4Rcpp10RstreambufILb1EE6xsputnEPKcx"
 "_ZN4Rcpp10RstreambufILb1EE8overflowEi"
 "_ZN4Rcpp10RstreambufILb1EED0Ev"
 "_ZN4Rcpp10RstreambufILb1EED1Ev"
 "_ZN4Rcpp8RostreamILb0EED0Ev"
 "_ZN4Rcpp8RostreamILb0EED1Ev"
 "_ZN4Rcpp8RostreamILb1EED0Ev"
 "_ZN4Rcpp8RostreamILb1EED1Ev"
 "_ZTCN4Rcpp8RostreamILb0EEE0_So"
 "_ZTCN4Rcpp8RostreamILb1EEE0_So"
 "_ZTIN4Rcpp10RstreambufILb0EEE"
 "_ZTIN4Rcpp10RstreambufILb1EEE"
 "_ZTIN4Rcpp8RostreamILb0EEE"
 "_ZTIN4Rcpp8RostreamILb1EEE"
 "_ZTISt11logic_error"
 "_ZTISt13runtime_error"
 "_ZTISt9bad_alloc"
 "_ZTISt9exception"
 "_ZTSN4Rcpp10RstreambufILb0EEE"
 "_ZTSN4Rcpp10RstreambufILb1EEE"
 "_ZTSN4Rcpp8RostreamILb0EEE"
 "_ZTSN4Rcpp8RostreamILb1EEE"
 "_ZTSSt11logic_error"
 "_ZTSSt13runtime_error"
 "_ZTSSt9bad_alloc"
 "_ZTSSt9exception"
 "_ZTTN4Rcpp8RostreamILb0EEE"
 "_ZTTN4Rcpp8RostreamILb1EEE"
 "_ZTv0_n24_N4Rcpp8RostreamILb0EED0Ev"
 "_ZTv0_n24_N4Rcpp8RostreamILb0EED1Ev"
 "_ZTv0_n24_N4Rcpp8RostreamILb1EED0Ev"
 "_ZTv0_n24_N4Rcpp8RostreamILb1EED1Ev"
 "_ZTVN4Rcpp10RstreambufILb0EEE"
 "_ZTVN4Rcpp10RstreambufILb1EEE"
 "_ZTVN4Rcpp8RostreamILb0EEE"
 "_ZTVN4Rcpp8RostreamILb1EEE"
 "_ZZN4arma16arma_cerr_streamIcEERSoPSoE11cerr_stream"
 "_Z10Rcpp_ARIMARKN4arma3ColIdEES3_"
 "_ZGVN4arma5DatumIdE3nanE"
 "_ZGVN4arma5DatumIiE3nanE"
 "_ZGVZ11stack_tracePKciE3fun"
 "_ZGVZ20rcpp_set_stack_traceP7SEXPRECE3fun"
 "_ZGVZ7dataptrP7SEXPRECE3fun"
 "_ZN10tinyformat6detail10formatImplERSoPKcPKNS0_9FormatArgEi"
 "_ZN10tinyformat6detail15formatTruncatedIxEEvRSoRKT_i"
 "_ZN10tinyformat6detail21streamStateFromFormatERSoRbRiPKcPKNS0_9FormatArgES3_i"
 "_ZN10tinyformat6detail9FormatArg10formatImplIPKcEEvRSoS4_S4_iPKv"
 "_ZN10tinyformat6detail9FormatArg10formatImplIxEEvRSoPKcS5_iPKv"
 "_ZN10tinyformat6detail9FormatArg9toIntImplIPKcEEiPKv"
 "_ZN10tinyformat6detail9FormatArg9toIntImplIxEEiPKv"
 "_ZN10tinyformat6formatIIEEESsPKcDpRKT_"
 "_ZN10tinyformat6formatIIPKcEEESsS2_DpRKT_"
 "_ZN10tinyformat6formatIIPKcS2_EEESsS2_DpRKT_"
 "_ZN10tinyformat6formatIIxxEEESsPKcDpRKT_"
 "_ZN4arma14glue_join_cols13apply_noaliasINS_3ColIdEES3_EEvRNS_3MatINT_9elem_typeEEERKNS_5ProxyIS5_EERKNS9_IT0_EE"
 "_ZN4arma3MatIdE9init_warmEjj"
 "_ZN4arma3MatIdED2Ev"
 "_ZN4arma5DatumIdE3nanE"
 "_ZN4arma5DatumIiE3nanE"
 "_ZN4arma8arrayops10copy_smallIdEEvPT_PKS2_j"
 "_ZN4Rcpp10eval_errorD0Ev"
 "_ZN4Rcpp10eval_errorD1Ev"
 "_ZN4Rcpp10RstreambufILb0EE4syncEv"
 "_ZN4Rcpp10RstreambufILb0EE6xsputnEPKcx"
 "_ZN4Rcpp10RstreambufILb0EE8overflowEi"
 "_ZN4Rcpp10RstreambufILb0EED0Ev"
 "_ZN4Rcpp10RstreambufILb0EED1Ev"
 "_ZN4Rcpp10RstreambufILb1EE4syncEv"
 "_ZN4Rcpp10RstreambufILb1EE6xsputnEPKcx"
 "_ZN4Rcpp10RstreambufILb1EE8overflowEi"
 "_ZN4Rcpp10RstreambufILb1EED0Ev"
 "_ZN4Rcpp10RstreambufILb1EED1Ev"
 "_ZN4Rcpp13RcppArmadillo9arma_wrapIN4arma3ColIdEEEEP7SEXPRECRKT_RKNS_9DimensionE"
 "_ZN4Rcpp14not_compatibleC1IIPKcEEES3_DpOT_"
 "_ZN4Rcpp14not_compatibleC1IIRKPKcEEES3_DpOT_"
 "_ZN4Rcpp14not_compatibleD0Ev"
 "_ZN4Rcpp14not_compatibleD1Ev"
 "_ZN4Rcpp16Environment_ImplINS_15PreserveStorageEEC1ERKSs"
 "_ZN4Rcpp19index_out_of_boundsC1IIRKxxEEEPKcDpOT_"
 "_ZN4Rcpp19index_out_of_boundsD0Ev"
 "_ZN4Rcpp19index_out_of_boundsD1Ev"
 "_ZN4Rcpp4growINS_6traits12named_objectIA4_cEEEEP7SEXPRECRKT_S6_"
 "_ZN4Rcpp4growINS_6traits12named_objectIbEEEEP7SEXPRECRKT_S5_"
 "_ZN4Rcpp4growINS_6traits12named_objectIN4arma3ColIdEEEEEEP7SEXPRECRKT_S8_"
 "_ZN4Rcpp4growINS_6traits12named_objectINS_6VectorILi14ENS_15PreserveStorageEEEEEEEP7SEXPRECRKT_S8_"
 "_ZN4Rcpp4stopERKSs"
 "_ZN4Rcpp4stopIIEEEvPKcDpOT_"
 "_ZN4Rcpp8internal10basic_castILi14EEEP7SEXPRECS3_"
 "_ZN4Rcpp8internal21export_indexing__implIN4arma3ColIdEEdEEvP7SEXPRECRT_NS_6traits17integral_constantIbLb0EEE"
 "_ZN4Rcpp8pairlistINS_6traits12named_objectIN4arma3ColIdEEEENS2_INS_6VectorILi14ENS_15PreserveStorageEEEEENS2_IbEENS2_INS7_ILi19ES8_EEEENS2_IA4_cEEEEP7SEXPRECRKT_RKT0_RKT1_RKT2_RKT3_"
 "_ZN4Rcpp8RostreamILb0EED0Ev"
 "_ZN4Rcpp8RostreamILb0EED1Ev"
 "_ZN4Rcpp8RostreamILb1EED0Ev"
 "_ZN4Rcpp8RostreamILb1EED1Ev"
 "_ZN4Rcpp9exceptionC1EPKcb"
 "_ZN4Rcpp9exceptionD0Ev"
 "_ZN4Rcpp9exceptionD1Ev"
 "_ZN4Rcpp9Rcpp_evalEP7SEXPRECS1_"
 "_ZNK4Rcpp10eval_error4whatEv"
 "_ZNK4Rcpp13BindingPolicyINS_16Environment_ImplINS_15PreserveStorageEEEE7BindingcvT_INS_13Function_ImplIS2_EEEEv"
 "_ZNK4Rcpp14not_compatible4whatEv"
 "_ZNK4Rcpp19index_out_of_bounds4whatEv"
 "_ZNK4Rcpp9exception4whatEv"
 "_ZNKSt5ctypeIcE8do_widenEc"
 "_ZNSt15basic_stringbufIcSt11char_traitsIcESaIcEED1Ev"
 "_ZTCN4Rcpp8RostreamILb0EEE0_So"
 "_ZTCN4Rcpp8RostreamILb1EEE0_So"
 "_ZTIN4Rcpp10eval_errorE"
 "_ZTIN4Rcpp10RstreambufILb0EEE"
 "_ZTIN4Rcpp10RstreambufILb1EEE"
 "_ZTIN4Rcpp14not_compatibleE"
 "_ZTIN4Rcpp19index_out_of_boundsE"
 "_ZTIN4Rcpp8internal20InterruptedExceptionE"
 "_ZTIN4Rcpp8RostreamILb0EEE"
 "_ZTIN4Rcpp8RostreamILb1EEE"
 "_ZTIN4Rcpp9exceptionE"
 "_ZTISt11logic_error"
 "_ZTISt9bad_alloc"
 "_ZTISt9exception"
 "_ZTSN4Rcpp10eval_errorE"
 "_ZTSN4Rcpp10RstreambufILb0EEE"
 "_ZTSN4Rcpp10RstreambufILb1EEE"
 "_ZTSN4Rcpp14not_compatibleE"
 "_ZTSN4Rcpp19index_out_of_boundsE"
 "_ZTSN4Rcpp8internal20InterruptedExceptionE"
 "_ZTSN4Rcpp8RostreamILb0EEE"
 "_ZTSN4Rcpp8RostreamILb1EEE"
 "_ZTSN4Rcpp9exceptionE"
 "_ZTSSt11logic_error"
 "_ZTSSt9bad_alloc"
 "_ZTSSt9exception"
 "_ZTTN4Rcpp8RostreamILb0EEE"
 "_ZTTN4Rcpp8RostreamILb1EEE"
 "_ZTv0_n24_N4Rcpp8RostreamILb0EED0Ev"
 "_ZTv0_n24_N4Rcpp8RostreamILb0EED1Ev"
 "_ZTv0_n24_N4Rcpp8RostreamILb1EED0Ev"
 "_ZTv0_n24_N4Rcpp8RostreamILb1EED1Ev"
 "_ZTVN4Rcpp10eval_errorE"
 "_ZTVN4Rcpp10RstreambufILb0EEE"
 "_ZTVN4Rcpp10RstreambufILb1EEE"
 "_ZTVN4Rcpp14not_compatibleE"
 "_ZTVN4Rcpp19index_out_of_boundsE"
 "_ZTVN4Rcpp8RostreamILb0EEE"
 "_ZTVN4Rcpp8RostreamILb1EEE"
 "_ZTVN4Rcpp9exceptionE"
 "_ZZ11stack_tracePKciE3fun"
 "_ZZ20rcpp_set_stack_traceP7SEXPRECE3fun"
 "_ZZ7dataptrP7SEXPRECE3fun"
 "_ZZN4arma16arma_cerr_streamIcEERSoPSoE11cerr_stream"
 "_Z11reverse_vecN4arma3ColIdEE"
 "_Z13sum_field_vecRKN4arma5fieldINS_3ColIdEEEE"
 "_Z14rev_col_subsetN4arma3MatIdEEjj"
 "_Z14rev_row_subsetN4arma3MatIdEEjj"
 "_Z15field_to_matrixN4arma5fieldINS_3ColIdEEEE"
 "_Z8sort_matN4arma3MatIdEEj"
 "_ZGVN4arma5DatumIdE3nanE"
 "_ZGVN4arma5DatumIiE3nanE"
 "_ZGVN4arma5DatumIjE3nanE"
 "_ZN4arma3MatIdE5resetEv"
 "_ZN4arma3MatIdE9init_warmEjj"
 "_ZN4arma3MatIdED1Ev"
 "_ZN4arma3MatIdED2Ev"
 "_ZN4arma3MatIjE9init_warmEjj"
 "_ZN4arma3MatIjED2Ev"
 "_ZN4arma5DatumIdE3nanE"
 "_ZN4arma5DatumIiE3nanE"
 "_ZN4arma5DatumIjE3nanE"
 "_ZN4arma8arrayops10copy_smallIdEEvPT_PKS2_j"
 "_ZN4arma8arrayops11inplace_setIjEEvPT_S2_j"
 "_ZN4Rcpp10RstreambufILb0EE4syncEv"
 "_ZN4Rcpp10RstreambufILb0EE6xsputnEPKcx"
 "_ZN4Rcpp10RstreambufILb0EE8overflowEi"
 "_ZN4Rcpp10RstreambufILb0EED0Ev"
 "_ZN4Rcpp10RstreambufILb0EED1Ev"
 "_ZN4Rcpp10RstreambufILb1EE4syncEv"
 "_ZN4Rcpp10RstreambufILb1EE6xsputnEPKcx"
 "_ZN4Rcpp10RstreambufILb1EE8overflowEi"
 "_ZN4Rcpp10RstreambufILb1EED0Ev"
 "_ZN4Rcpp10RstreambufILb1EED1Ev"
 "_ZN4Rcpp8RostreamILb0EED0Ev"
 "_ZN4Rcpp8RostreamILb0EED1Ev"
 "_ZN4Rcpp8RostreamILb1EED0Ev"
 "_ZN4Rcpp8RostreamILb1EED1Ev"
 "_ZSt13__adjust_heapIN9__gnu_cxx17__normal_iteratorIPN4arma22arma_sort_index_packetIdEESt6vectorIS4_SaIS4_EEEExS4_NS0_5__ops15_Iter_comp_iterINS2_29arma_sort_index_helper_ascendIdEEEEEvT_T0_SG_T1_T2_"
 "_ZSt13__adjust_heapIN9__gnu_cxx17__normal_iteratorIPN4arma22arma_sort_index_packetIdEESt6vectorIS4_SaIS4_EEEExS4_NS0_5__ops15_Iter_comp_iterINS2_30arma_sort_index_helper_descendIdEEEEEvT_T0_SG_T1_T2_"
 "_ZSt16__insertion_sortIN9__gnu_cxx17__normal_iteratorIPN4arma22arma_sort_index_packetIdEESt6vectorIS4_SaIS4_EEEENS0_5__ops15_Iter_comp_iterINS2_29arma_sort_index_helper_ascendIdEEEEEvT_SF_T0_"
 "_ZSt16__insertion_sortIN9__gnu_cxx17__normal_iteratorIPN4arma22arma_sort_index_packetIdEESt6vectorIS4_SaIS4_EEEENS0_5__ops15_Iter_comp_iterINS2_30arma_sort_index_helper_descendIdEEEEEvT_SF_T0_"
 "_ZSt16__introsort_loopIN9__gnu_cxx17__normal_iteratorIPN4arma22arma_sort_index_packetIdEESt6vectorIS4_SaIS4_EEEExNS0_5__ops15_Iter_comp_iterINS2_29arma_sort_index_helper_ascendIdEEEEEvT_SF_T0_T1_"
 "_ZSt16__introsort_loopIN9__gnu_cxx17__normal_iteratorIPN4arma22arma_sort_index_packetIdEESt6vectorIS4_SaIS4_EEEExNS0_5__ops15_Iter_comp_iterINS2_30arma_sort_index_helper_descendIdEEEEEvT_SF_T0_T1_"
 "_ZTCN4Rcpp8RostreamILb0EEE0_So"
 "_ZTCN4Rcpp8RostreamILb1EEE0_So"
 "_ZTIN4Rcpp10RstreambufILb0EEE"
 "_ZTIN4Rcpp10RstreambufILb1EEE"
 "_ZTIN4Rcpp8RostreamILb0EEE"
 "_ZTIN4Rcpp8RostreamILb1EEE"
 "_ZTISt11logic_error"
 "_ZTISt9bad_alloc"
 "_ZTISt9exception"
 "_ZTSN4Rcpp10RstreambufILb0EEE"
 "_ZTSN4Rcpp10RstreambufILb1EEE"
 "_ZTSN4Rcpp8RostreamILb0EEE"
 "_ZTSN4Rcpp8RostreamILb1EEE"
 "_ZTSSt11logic_error"
 "_ZTSSt9bad_alloc"
 "_ZTSSt9exception"
 "_ZTTN4Rcpp8RostreamILb0EEE"
 "_ZTTN4Rcpp8RostreamILb1EEE"
 "_ZTv0_n24_N4Rcpp8RostreamILb0EED0Ev"
 "_ZTv0_n24_N4Rcpp8RostreamILb0EED1Ev"
 "_ZTv0_n24_N4Rcpp8RostreamILb1EED0Ev"
 "_ZTv0_n24_N4Rcpp8RostreamILb1EED1Ev"
 "_ZTVN4Rcpp10RstreambufILb0EEE"
 "_ZTVN4Rcpp10RstreambufILb1EEE"
 "_ZTVN4Rcpp8RostreamILb0EEE"
 "_ZTVN4Rcpp8RostreamILb1EEE"
 "_ZZN4arma16arma_cerr_streamIcEERSoPSoE11cerr_stream"
 "_Z11asympt_calcRKN4arma3ColIdEERKSt6vectorISsSaISsEERKNS_5fieldIS1_EESsS3_RKNS_3MatIdEESG_S3_S3_d"
 "_Z12auto_imu_cppRN4arma3MatIdEERKS1_RKSt6vectorISsSaISsEEdSsSsjjjbdbj"
 "_Z12count_paramsRKSt6vectorISsSaISsEE"
 "_Z12model_selectRN4arma3ColIdEERKSt3setISt6vectorISsSaISsEESt4lessIS6_ESaIS6_EERKS6_SsbdSsjjjbdj"
 "_Z13bs_optim_calcRKN4arma3ColIdEERKSt6vectorISsSaISsEERKNS_5fieldIS1_EESsS3_RKNS_3MatIdEEjddSsjjjbd"
 "_Z13vector_to_setSt6vectorIS_ISsSaISsEESaIS1_EE"
 "_Z15build_model_setRKN4arma3MatIdEESt6vectorISsSaISsEE"
 "_Z15find_full_modelSt6vectorIS_ISsSaISsEESaIS1_EE"
 "_Z15rank_models_cppRN4arma3ColIdEERKSt6vectorIS3_ISsSaISsEESaIS5_EERKS5_dSsSsjjjbdbj"
 "_Z8set_seedj"
 "_ZGVN4arma5DatumIdE3nanE"
 "_ZGVN4arma5DatumIiE3nanE"
 "_ZGVN4arma5DatumIjE3nanE"
 "_ZGVZ11stack_tracePKciE3fun"
 "_ZGVZ20rcpp_set_stack_traceP7SEXPRECE3fun"
 "_ZGVZ7dataptrP7SEXPRECE3fun"
 "_ZN10tinyformat6detail10formatImplERSoPKcPKNS0_9FormatArgEi"
 "_ZN10tinyformat6detail21streamStateFromFormatERSoRbRiPKcPKNS0_9FormatArgES3_i"
 "_ZN10tinyformat6detail9FormatArg10formatImplIPKcEEvRSoS4_S4_iPKv"
 "_ZN10tinyformat6detail9FormatArg9toIntImplIPKcEEiPKv"
 "_ZN10tinyformat6formatIIEEESsPKcDpRKT_"
 "_ZN10tinyformat6formatIIPKcEEESsS2_DpRKT_"
 "_ZN4arma10arma_checkIA39_cEEvbRKT_"
 "_ZN4arma10glue_times5applyIdLb0ELb0ELb0ENS_3MatIdEES3_EEvRNS2_IT_EERKT3_RKT4_S4_"
 "_ZN4arma16gemv_emul_tinysqILb0ELb0ELb0EE5applyIdNS_3MatIdEEEEvPT_RKT0_PKS5_S5_S5_"
 "_ZN4arma16gemv_emul_tinysqILb1ELb0ELb0EE5applyIdNS_3MatIdEEEEvPT_RKT0_PKS5_S5_S5_"
 "_ZN4arma22arma_sort_index_helperINS_7subviewIdEELb0EEEbRNS_3MatIjEERKNS_5ProxyIT_EEj"
 "_ZN4arma3ColIdEC1ERKS1_"
 "_ZN4arma3MatIdE5resetEv"
 "_ZN4arma3MatIdE9init_coldEv"
 "_ZN4arma3MatIdE9init_warmEjj"
 "_ZN4arma3MatIdE9steal_memERS1_"
 "_ZN4arma3MatIdEaSERKS1_"
 "_ZN4arma3MatIdEC1ERKS1_"
 "_ZN4arma3MatIdED1Ev"
 "_ZN4arma3MatIdED2Ev"
 "_ZN4arma3MatIjE9init_warmEjj"
 "_ZN4arma3MatIjED2Ev"
 "_ZN4arma5DatumIdE3nanE"
 "_ZN4arma5DatumIiE3nanE"
 "_ZN4arma5DatumIjE3nanE"
 "_ZN4arma5fieldINS_3ColIdEEED1Ev"
 "_ZN4arma5fieldINS_3MatIdEEE4initEjjj"
 "_ZN4arma5fieldINS_3MatIdEEE4initERKS3_"
 "_ZN4arma5fieldINS_3MatIdEEED1Ev"
 "_ZN4arma5fieldINS0_INS_3MatIdEEEEE4initEjjj"
 "_ZN4arma5fieldINS0_INS_3MatIdEEEEED1Ev"
 "_ZN4arma5fieldINS0_INS0_INS_3MatIdEEEEEEE4initEjjj"
 "_ZN4arma5fieldINS0_INS0_INS_3MatIdEEEEEEED1Ev"
 "_ZN4arma6auxlib3invIdEEbRNS_3MatIT_EERKS4_"
 "_ZN4arma6auxlib8inv_tinyIdEEbRNS_3MatIT_EERKS4_"
 "_ZN4arma6auxlib9inv_sympdIdNS_3MatIdEEEEbRNS2_IT_EERKNS_4BaseIS4_T0_EE"
 "_ZN4arma6op_inv13apply_noaliasIdEEvRNS_3MatIT_EERKS4_"
 "_ZN4arma7subviewIdE10inplace_opINS_15op_internal_equENS_3MatIdEEEEvRKNS_4BaseIdT0_EEPKc"
 "_ZN4arma7subviewIdE10inplace_opINS_15op_internal_equENS_5eGlueINS_11subview_colIdEES6_NS_10eglue_plusEEEEEvRKNS_4BaseIdT0_EEPKc"
 "_ZN4arma7subviewIdE7extractERNS_3MatIdEERKS1_"
 "_ZN4arma8arrayops10copy_smallIdEEvPT_PKS2_j"
 "_ZN4arma8arrayops10copy_smallIPNS_5fieldINS_3MatIdEEEEEEvPT_PKS7_j"
 "_ZN4arma8arrayops11inplace_setIdEEvPT_S2_j"
 "_ZN4arma8arrayops11inplace_setIjEEvPT_S2_j"
 "_ZN4arma8arrayops17inplace_set_smallIdEEvPT_S2_j"
 "_ZN4arma8eop_coreINS_15eop_scalar_plusEE5applyINS_3MatIdEENS_3ColIdEEEEvRT_RKNS_3eOpIT0_S1_EE"
 "_ZN4Rcpp10eval_errorD0Ev"
 "_ZN4Rcpp10eval_errorD1Ev"
 "_ZN4Rcpp10RstreambufILb0EE4syncEv"
 "_ZN4Rcpp10RstreambufILb0EE6xsputnEPKcx"
 "_ZN4Rcpp10RstreambufILb0EE8overflowEi"
 "_ZN4Rcpp10RstreambufILb0EED0Ev"
 "_ZN4Rcpp10RstreambufILb0EED1Ev"
 "_ZN4Rcpp10RstreambufILb1EE4syncEv"
 "_ZN4Rcpp10RstreambufILb1EE6xsputnEPKcx"
 "_ZN4Rcpp10RstreambufILb1EE8overflowEi"
 "_ZN4Rcpp10RstreambufILb1EED0Ev"
 "_ZN4Rcpp10RstreambufILb1EED1Ev"
 "_ZN4Rcpp14not_compatibleC1IIPKcEEES3_DpOT_"
 "_ZN4Rcpp14not_compatibleD0Ev"
 "_ZN4Rcpp14not_compatibleD1Ev"
 "_ZN4Rcpp16Environment_ImplINS_15PreserveStorageEEC1ERKSs"
 "_ZN4Rcpp4growIjEEP7SEXPRECRKT_S2_"
 "_ZN4Rcpp4stopERKSs"
 "_ZN4Rcpp4stopIIEEEvPKcDpOT_"
 "_ZN4Rcpp8RostreamILb0EED0Ev"
 "_ZN4Rcpp8RostreamILb0EED1Ev"
 "_ZN4Rcpp8RostreamILb1EED0Ev"
 "_ZN4Rcpp8RostreamILb1EED1Ev"
 "_ZN4Rcpp9exceptionC1EPKcb"
 "_ZN4Rcpp9exceptionD0Ev"
 "_ZN4Rcpp9exceptionD1Ev"
 "_ZN4Rcpp9Rcpp_evalEP7SEXPRECS1_"
 "_ZNK10tinyformat6detail9FormatArg5toIntEv"
 "_ZNK4Rcpp10eval_error4whatEv"
 "_ZNK4Rcpp13BindingPolicyINS_16Environment_ImplINS_15PreserveStorageEEEE7BindingcvT_INS_13Function_ImplIS2_EEEEv"
 "_ZNK4Rcpp14not_compatible4whatEv"
 "_ZNK4Rcpp9exception4whatEv"
 "_ZNKSt5ctypeIcE8do_widenEc"
 "_ZNSt15basic_stringbufIcSt11char_traitsIcESaIcEED1Ev"
 "_ZNSt6vectorISsSaISsEE19_M_emplace_back_auxIIRKSsEEEvDpOT_"
 "_ZNSt6vectorISsSaISsEEaSERKS1_"
 "_ZNSt6vectorISsSaISsEEC1ERKS1_"
 "_ZNSt6vectorISsSaISsEED1Ev"
 "_ZNSt8_Rb_treeISsSt4pairIKSsiESt10_Select1stIS2_ESt4lessISsESaIS2_EE8_M_eraseEPSt13_Rb_tree_nodeIS2_E"
 "_ZNSt8_Rb_treeISt6vectorISsSaISsEES2_St9_IdentityIS2_ESt4lessIS2_ESaIS2_EE16_M_insert_uniqueIRKS2_EESt4pairISt17_Rb_tree_iteratorIS2_EbEOT_"
 "_ZNSt8_Rb_treeISt6vectorISsSaISsEES2_St9_IdentityIS2_ESt4lessIS2_ESaIS2_EE8_M_eraseEPSt13_Rb_tree_nodeIS2_E"
 "_ZSt13__adjust_heapIN9__gnu_cxx17__normal_iteratorIPN4arma22arma_sort_index_packetIdEESt6vectorIS4_SaIS4_EEEExS4_NS0_5__ops15_Iter_comp_iterINS2_29arma_sort_index_helper_ascendIdEEEEEvT_T0_SG_T1_T2_"
 "_ZSt13__adjust_heapIN9__gnu_cxx17__normal_iteratorIPN4arma22arma_sort_index_packetIdEESt6vectorIS4_SaIS4_EEEExS4_NS0_5__ops15_Iter_comp_iterINS2_30arma_sort_index_helper_descendIdEEEEEvT_T0_SG_T1_T2_"
 "_ZSt16__insertion_sortIN9__gnu_cxx17__normal_iteratorIPN4arma22arma_sort_index_packetIdEESt6vectorIS4_SaIS4_EEEENS0_5__ops15_Iter_comp_iterINS2_29arma_sort_index_helper_ascendIdEEEEEvT_SF_T0_"
 "_ZSt16__insertion_sortIN9__gnu_cxx17__normal_iteratorIPN4arma22arma_sort_index_packetIdEESt6vectorIS4_SaIS4_EEEENS0_5__ops15_Iter_comp_iterINS2_30arma_sort_index_helper_descendIdEEEEEvT_SF_T0_"
 "_ZSt16__introsort_loopIN9__gnu_cxx17__normal_iteratorIPN4arma22arma_sort_index_packetIdEESt6vectorIS4_SaIS4_EEEExNS0_5__ops15_Iter_comp_iterINS2_29arma_sort_index_helper_ascendIdEEEEEvT_SF_T0_T1_"
 "_ZSt16__introsort_loopIN9__gnu_cxx17__normal_iteratorIPN4arma22arma_sort_index_packetIdEESt6vectorIS4_SaIS4_EEEExNS0_5__ops15_Iter_comp_iterINS2_30arma_sort_index_helper_descendIdEEEEEvT_SF_T0_T1_"
 "_ZTCN4Rcpp8RostreamILb0EEE0_So"
 "_ZTCN4Rcpp8RostreamILb1EEE0_So"
 "_ZTIN4Rcpp10eval_errorE"
 "_ZTIN4Rcpp10RstreambufILb0EEE"
 "_ZTIN4Rcpp10RstreambufILb1EEE"
 "_ZTIN4Rcpp14not_compatibleE"
 "_ZTIN4Rcpp8internal20InterruptedExceptionE"
 "_ZTIN4Rcpp8RostreamILb0EEE"
 "_ZTIN4Rcpp8RostreamILb1EEE"
 "_ZTIN4Rcpp9exceptionE"
 "_ZTISt11logic_error"
 "_ZTISt13runtime_error"
 "_ZTISt9bad_alloc"
 "_ZTISt9exception"
 "_ZTSN4Rcpp10eval_errorE"
 "_ZTSN4Rcpp10RstreambufILb0EEE"
 "_ZTSN4Rcpp10RstreambufILb1EEE"
 "_ZTSN4Rcpp14not_compatibleE"
 "_ZTSN4Rcpp8internal20InterruptedExceptionE"
 "_ZTSN4Rcpp8RostreamILb0EEE"
 "_ZTSN4Rcpp8RostreamILb1EEE"
 "_ZTSN4Rcpp9exceptionE"
 "_ZTSSt11logic_error"
 "_ZTSSt13runtime_error"
 "_ZTSSt9bad_alloc"
 "_ZTSSt9exception"
 "_ZTTN4Rcpp8RostreamILb0EEE"
 "_ZTTN4Rcpp8RostreamILb1EEE"
 "_ZTv0_n24_N4Rcpp8RostreamILb0EED0Ev"
 "_ZTv0_n24_N4Rcpp8RostreamILb0EED1Ev"
 "_ZTv0_n24_N4Rcpp8RostreamILb1EED0Ev"
 "_ZTv0_n24_N4Rcpp8RostreamILb1EED1Ev"
 "_ZTVN4Rcpp10eval_errorE"
 "_ZTVN4Rcpp10RstreambufILb0EEE"
 "_ZTVN4Rcpp10RstreambufILb1EEE"
 "_ZTVN4Rcpp14not_compatibleE"
 "_ZTVN4Rcpp8RostreamILb0EEE"
 "_ZTVN4Rcpp8RostreamILb1EEE"
 "_ZTVN4Rcpp9exceptionE"
 "_ZZ11stack_tracePKciE3fun"
 "_ZZ20rcpp_set_stack_traceP7SEXPRECE3fun"
 "_ZZ7dataptrP7SEXPRECE3fun"
 "_ZZN4arma16arma_cerr_streamIcEERSoPSoE11cerr_stream"
 "_Z13boot_pval_gofdRKN4arma3ColIdEEjd"
 "_Z16all_bootstrapperRKN4arma3ColIdEERKSt6vectorISsSaISsEERKNS_5fieldIS1_EES3_Ssjbddj"
 "_Z16cov_bootstrapperRKN4arma3ColIdEERKSt6vectorISsSaISsEERKNS_5fieldIS1_EEjbdjb"
 "_Z20gmwm_sd_bootstrapperRKN4arma3ColIdEERKSt6vectorISsSaISsEERKNS_5fieldIS1_EES3_Ssjbddj"
 "_Z21optimism_bootstrapperRKN4arma3ColIdEERKSt6vectorISsSaISsEERKNS_5fieldIS1_EES3_Ssjbddj"
 "_Z22opt_n_gof_bootstrapperRKN4arma3ColIdEERKSt6vectorISsSaISsEERKNS_5fieldIS1_EES3_Ssjbddj"
 "_Z23gmwm_param_bootstrapperRKN4arma3ColIdEERKSt6vectorISsSaISsEERKNS_5fieldIS1_EES3_Ssjbddj"
 "_ZGVN4arma5DatumIdE3nanE"
 "_ZGVN4arma5DatumIiE3nanE"
 "_ZN4arma10glue_times5applyIdLb0ELb1ELb0ENS_3MatIdEES3_EEvRNS2_IT_EERKT3_RKT4_S4_"
 "_ZN4arma10glue_times5applyIdLb1ELb0ELb0ENS_3MatIdEES3_EEvRNS2_IT_EERKT3_RKT4_S4_"
 "_ZN4arma10op_diagmat5applyINS_2OpINS2_INS_3MatIdEENS_9op_htransEEENS_6op_covEEEEEvRNS3_INT_9elem_typeEEERKNS2_IS9_S0_EE"
 "_ZN4arma16gemm_emul_tinysqILb1ELb0ELb0EE5applyIdNS_3MatIdEES4_EEvRNS3_IT_EERKT0_RKT1_S5_S5_"
 "_ZN4arma16gemv_emul_tinysqILb0ELb0ELb0EE5applyIdNS_3MatIdEEEEvPT_RKT0_PKS5_S5_S5_"
 "_ZN4arma16gemv_emul_tinysqILb1ELb0ELb0EE5applyIdNS_3MatIdEEEEvPT_RKT0_PKS5_S5_S5_"
 "_ZN4arma17subview_each1_aux14operator_minusINS_3MatIdEELj1ENS_2OpIS3_NS_7op_meanEEEEENS2_INT_9elem_typeEEERKNS_13subview_each1IS7_XT0_EEERKNS_4BaseIS8_T1_EE"
 "_ZN4arma27glue_times_redirect2_helperILb0EE5applyINS_2OpINS_3MatIdEENS_9op_htransEEES5_EEvRNS4_INT_9elem_typeEEERKNS_4GlueIS8_T0_NS_10glue_timesEEE"
 "_ZN4arma3ColIdEC1ERKS1_"
 "_ZN4arma3ColIdEC1INS_7subviewIdEEEERKNS_4BaseIdT_EE"
 "_ZN4arma3MatIdE5resetEv"
 "_ZN4arma3MatIdE9init_coldEv"
 "_ZN4arma3MatIdE9init_warmEjj"
 "_ZN4arma3MatIdE9steal_memERS1_"
 "_ZN4arma3MatIdEaSERKS1_"
 "_ZN4arma3MatIdEC1ERKS1_"
 "_ZN4arma3MatIdED1Ev"
 "_ZN4arma3MatIdED2Ev"
 "_ZN4arma3MatIjE9init_coldEv"
 "_ZN4arma4gemvILb1ELb0ELb0EE15apply_blas_typeIdNS_3MatIdEEEEvPT_RKT0_PKS5_S5_S5_"
 "_ZN4arma5DatumIdE3nanE"
 "_ZN4arma5DatumIiE3nanE"
 "_ZN4arma5fieldINS_3ColIdEEED1Ev"
 "_ZN4arma5fieldINS_3MatIdEEE4initEjjj"
 "_ZN4arma5fieldINS_3MatIdEEED1Ev"
 "_ZN4arma6auxlib3invIdEEbRNS_3MatIT_EERKS4_"
 "_ZN4arma6auxlib8inv_tinyIdEEbRNS_3MatIT_EERKS4_"
 "_ZN4arma6op_cov5applyINS_3MatIdEEEEvRNS2_INT_9elem_typeEEERKNS_2OpINS8_IS4_NS_9op_htransEEES0_EE"
 "_ZN4arma6op_cov5applyINS_3MatIdEEEEvRNS2_INT_9elem_typeEEERKNS_2OpIS4_S0_EE"
 "_ZN4arma6op_dot10direct_dotIdEENS_14arma_real_onlyIT_E6resultEjPKS3_S7_"
 "_ZN4arma6op_var10direct_varIdEET_PKS2_jj"
 "_ZN4arma7op_mean20apply_noalias_unwrapINS_3MatIdEEEEvRNS2_INT_9elem_typeEEERKNS_5ProxyIS4_EEj"
 "_ZN4arma7subviewIdE10inplace_opINS_15op_internal_equENS_3MatIdEEEEvRKNS_4BaseIdT0_EEPKc"
 "_ZN4arma7subviewIdE7extractERNS_3MatIdEERKS1_"
 "_ZN4arma8arrayops10copy_smallIdEEvPT_PKS2_j"
 "_ZN4arma8arrayops11inplace_divIdEEvPT_S2_j"
 "_ZN4arma8arrayops11inplace_setIdEEvPT_S2_j"
 "_ZN4arma8arrayops17inplace_set_smallIdEEvPT_S2_j"
 "_ZN4arma8glue_cov5applyINS_2OpINS_3MatIdEENS_9op_htransEEES6_EEvRNS3_INT_9elem_typeEEERKNS_4GlueIS7_T0_S0_EE"
 "_ZN4arma8glue_cov5applyINS_3MatIdEENS_2OpIS3_NS_9op_htransEEEEEvRNS2_INT_9elem_typeEEERKNS_4GlueIS7_T0_S0_EE"
 "_ZN4arma9op_stddev5applyINS_2OpINS_3MatIdEENS_9op_htransEEEEEvRNS3_INT_8pod_typeEEERKNS_4mtOpIS8_S7_S0_EE"
 "_ZN4arma9op_stddev5applyINS_3MatIdEEEEvRNS2_INT_8pod_typeEEERKNS_4mtOpIS5_S4_S0_EE"
 "_ZN4arma9op_strans17apply_mat_noaliasIdNS_3MatIdEEEEvRNS2_IT_EERKT0_"
 "_ZN4arma9op_strans23apply_mat_noalias_largeIdEEvRNS_3MatIT_EERKS4_"
 "_ZN4arma9op_strans24apply_mat_noalias_tinysqIdNS_3MatIdEEEEvRNS2_IT_EERKT0_"
 "_ZN4arma9op_strans9apply_matIdNS_3MatIdEEEEvRNS2_IT_EERKT0_"
 "_ZN4Rcpp10RstreambufILb0EE4syncEv"
 "_ZN4Rcpp10RstreambufILb0EE6xsputnEPKcx"
 "_ZN4Rcpp10RstreambufILb0EE8overflowEi"
 "_ZN4Rcpp10RstreambufILb0EED0Ev"
 "_ZN4Rcpp10RstreambufILb0EED1Ev"
 "_ZN4Rcpp10RstreambufILb1EE4syncEv"
 "_ZN4Rcpp10RstreambufILb1EE6xsputnEPKcx"
 "_ZN4Rcpp10RstreambufILb1EE8overflowEi"
 "_ZN4Rcpp10RstreambufILb1EED0Ev"
 "_ZN4Rcpp10RstreambufILb1EED1Ev"
 "_ZN4Rcpp8RostreamILb0EED0Ev"
 "_ZN4Rcpp8RostreamILb0EED1Ev"
 "_ZN4Rcpp8RostreamILb1EED0Ev"
 "_ZN4Rcpp8RostreamILb1EED1Ev"
 "_ZNK4arma19subview_each_commonINS_3MatIdEELj0EE20incompat_size_stringERKS2_"
 "_ZNK4arma19subview_each_commonINS_3MatIdEELj1EE20incompat_size_stringERKS2_"
 "_ZTCN4Rcpp8RostreamILb0EEE0_So"
 "_ZTCN4Rcpp8RostreamILb1EEE0_So"
 "_ZTIN4Rcpp10RstreambufILb0EEE"
 "_ZTIN4Rcpp10RstreambufILb1EEE"
 "_ZTIN4Rcpp8RostreamILb0EEE"
 "_ZTIN4Rcpp8RostreamILb1EEE"
 "_ZTISt11logic_error"
 "_ZTISt13runtime_error"
 "_ZTISt9bad_alloc"
 "_ZTISt9exception"
 "_ZTSN4Rcpp10RstreambufILb0EEE"
 "_ZTSN4Rcpp10RstreambufILb1EEE"
 "_ZTSN4Rcpp8RostreamILb0EEE"
 "_ZTSN4Rcpp8RostreamILb1EEE"
 "_ZTSSt11logic_error"
 "_ZTSSt13runtime_error"
 "_ZTSSt9bad_alloc"
 "_ZTSSt9exception"
 "_ZTTN4Rcpp8RostreamILb0EEE"
 "_ZTTN4Rcpp8RostreamILb1EEE"
 "_ZTv0_n24_N4Rcpp8RostreamILb0EED0Ev"
 "_ZTv0_n24_N4Rcpp8RostreamILb0EED1Ev"
 "_ZTv0_n24_N4Rcpp8RostreamILb1EED0Ev"
 "_ZTv0_n24_N4Rcpp8RostreamILb1EED1Ev"
 "_ZTVN4Rcpp10RstreambufILb0EEE"
 "_ZTVN4Rcpp10RstreambufILb1EEE"
 "_ZTVN4Rcpp8RostreamILb0EEE"
 "_ZTVN4Rcpp8RostreamILb1EEE"
 "_ZZN4arma16arma_cerr_streamIcEERSoPSoE11cerr_stream"
 "_Z15Mod_squared_cppRKN4arma3ColISt7complexIdEEE"
 "_Z7Mod_cppRKN4arma3ColISt7complexIdEEE"
 "_ZGVN4arma5DatumIdE3nanE"
 "_ZGVN4arma5DatumIiE3nanE"
 "_ZN4arma3MatIdED1Ev"
 "_ZN4arma3MatIdED2Ev"
 "_ZN4arma5DatumIdE3nanE"
 "_ZN4arma5DatumIiE3nanE"
 "_ZN4Rcpp10RstreambufILb0EE4syncEv"
 "_ZN4Rcpp10RstreambufILb0EE6xsputnEPKcx"
 "_ZN4Rcpp10RstreambufILb0EE8overflowEi"
 "_ZN4Rcpp10RstreambufILb0EED0Ev"
 "_ZN4Rcpp10RstreambufILb0EED1Ev"
 "_ZN4Rcpp10RstreambufILb1EE4syncEv"
 "_ZN4Rcpp10RstreambufILb1EE6xsputnEPKcx"
 "_ZN4Rcpp10RstreambufILb1EE8overflowEi"
 "_ZN4Rcpp10RstreambufILb1EED0Ev"
 "_ZN4Rcpp10RstreambufILb1EED1Ev"
 "_ZN4Rcpp8RostreamILb0EED0Ev"
 "_ZN4Rcpp8RostreamILb0EED1Ev"
 "_ZN4Rcpp8RostreamILb1EED0Ev"
 "_ZN4Rcpp8RostreamILb1EED1Ev"
 "_ZTCN4Rcpp8RostreamILb0EEE0_So"
 "_ZTCN4Rcpp8RostreamILb1EEE0_So"
 "_ZTIN4Rcpp10RstreambufILb0EEE"
 "_ZTIN4Rcpp10RstreambufILb1EEE"
 "_ZTIN4Rcpp8RostreamILb0EEE"
 "_ZTIN4Rcpp8RostreamILb1EEE"
 "_ZTISt11logic_error"
 "_ZTISt9bad_alloc"
 "_ZTISt9exception"
 "_ZTSN4Rcpp10RstreambufILb0EEE"
 "_ZTSN4Rcpp10RstreambufILb1EEE"
 "_ZTSN4Rcpp8RostreamILb0EEE"
 "_ZTSN4Rcpp8RostreamILb1EEE"
 "_ZTSSt11logic_error"
 "_ZTSSt9bad_alloc"
 "_ZTSSt9exception"
 "_ZTTN4Rcpp8RostreamILb0EEE"
 "_ZTTN4Rcpp8RostreamILb1EEE"
 "_ZTv0_n24_N4Rcpp8RostreamILb0EED0Ev"
 "_ZTv0_n24_N4Rcpp8RostreamILb0EED1Ev"
 "_ZTv0_n24_N4Rcpp8RostreamILb1EED0Ev"
 "_ZTv0_n24_N4Rcpp8RostreamILb1EED1Ev"
 "_ZTVN4Rcpp10RstreambufILb0EEE"
 "_ZTVN4Rcpp10RstreambufILb1EEE"
 "_ZTVN4Rcpp8RostreamILb0EEE"
 "_ZTVN4Rcpp8RostreamILb1EEE"
 "_ZZN4arma16arma_cerr_streamIcEERSoPSoE11cerr_stream"
 "_Z12fast_cov_cppRKN4arma3ColIdEES3_"
 "_Z15compute_cov_cppN4arma5fieldINS_3ColIdEEEEjSsbd"
 "_ZGVN4arma5DatumIdE3nanE"
 "_ZGVN4arma5DatumIiE3nanE"
 "_ZN4arma3MatIdED2Ev"
 "_ZN4arma5DatumIdE3nanE"
 "_ZN4arma5DatumIiE3nanE"
 "_ZN4arma5fieldINS_3MatIdEEED1Ev"
 "_ZN4arma8arrayops17inplace_set_smallIdEEvPT_S2_j"
 "_ZN4Rcpp10RstreambufILb0EE4syncEv"
 "_ZN4Rcpp10RstreambufILb0EE6xsputnEPKcx"
 "_ZN4Rcpp10RstreambufILb0EE8overflowEi"
 "_ZN4Rcpp10RstreambufILb0EED0Ev"
 "_ZN4Rcpp10RstreambufILb0EED1Ev"
 "_ZN4Rcpp10RstreambufILb1EE4syncEv"
 "_ZN4Rcpp10RstreambufILb1EE6xsputnEPKcx"
 "_ZN4Rcpp10RstreambufILb1EE8overflowEi"
 "_ZN4Rcpp10RstreambufILb1EED0Ev"
 "_ZN4Rcpp10RstreambufILb1EED1Ev"
 "_ZN4Rcpp8RostreamILb0EED0Ev"
 "_ZN4Rcpp8RostreamILb0EED1Ev"
 "_ZN4Rcpp8RostreamILb1EED0Ev"
 "_ZN4Rcpp8RostreamILb1EED1Ev"
 "_ZTCN4Rcpp8RostreamILb0EEE0_So"
 "_ZTCN4Rcpp8RostreamILb1EEE0_So"
 "_ZTIN4Rcpp10RstreambufILb0EEE"
 "_ZTIN4Rcpp10RstreambufILb1EEE"
 "_ZTIN4Rcpp8RostreamILb0EEE"
 "_ZTIN4Rcpp8RostreamILb1EEE"
 "_ZTISt11logic_error"
 "_ZTISt9bad_alloc"
 "_ZTISt9exception"
 "_ZTSN4Rcpp10RstreambufILb0EEE"
 "_ZTSN4Rcpp10RstreambufILb1EEE"
 "_ZTSN4Rcpp8RostreamILb0EEE"
 "_ZTSN4Rcpp8RostreamILb1EEE"
 "_ZTSSt11logic_error"
 "_ZTSSt9bad_alloc"
 "_ZTSSt9exception"
 "_ZTTN4Rcpp8RostreamILb0EEE"
 "_ZTTN4Rcpp8RostreamILb1EEE"
 "_ZTv0_n24_N4Rcpp8RostreamILb0EED0Ev"
 "_ZTv0_n24_N4Rcpp8RostreamILb0EED1Ev"
 "_ZTv0_n24_N4Rcpp8RostreamILb1EED0Ev"
 "_ZTv0_n24_N4Rcpp8RostreamILb1EED1Ev"
 "_ZTVN4Rcpp10RstreambufILb0EEE"
 "_ZTVN4Rcpp10RstreambufILb1EEE"
 "_ZTVN4Rcpp8RostreamILb0EEE"
 "_ZTVN4Rcpp8RostreamILb1EEE"
 "_ZZN4arma16arma_cerr_streamIcEERSoPSoE11cerr_stream"
 "_Z10brick_wallN4arma5fieldINS_3ColIdEEEES3_Ss"
 "_Z7dwt_cppN4arma3ColIdEESsjSsb"
 "_Z9modwt_cppN4arma3ColIdEESsjSsb"
 "_ZGVN4arma5DatumIdE3nanE"
 "_ZGVN4arma5DatumIiE3nanE"
 "_ZGVZ11stack_tracePKciE3fun"
 "_ZGVZ20rcpp_set_stack_traceP7SEXPRECE3fun"
 "_ZN10tinyformat6detail10formatImplERSoPKcPKNS0_9FormatArgEi"
 "_ZN10tinyformat6detail21streamStateFromFormatERSoRbRiPKcPKNS0_9FormatArgES3_i"
 "_ZN10tinyformat6formatIIEEESsPKcDpRKT_"
 "_ZN4arma3MatIdE5resetEv"
 "_ZN4arma3MatIdE9init_warmEjj"
 "_ZN4arma3MatIdED1Ev"
 "_ZN4arma5DatumIdE3nanE"
 "_ZN4arma5DatumIiE3nanE"
 "_ZN4arma8arrayops10copy_smallIdEEvPT_PKS2_j"
 "_ZN4arma8arrayops10copy_smallIPNS_3ColIdEEEEvPT_PKS5_j"
 "_ZN4arma8arrayops17inplace_set_smallIdEEvPT_S2_j"
 "_ZN4arma9op_resize5applyINS_3MatIdEEEEvRNS2_INT_9elem_typeEEERKNS_2OpIS4_S0_EE"
 "_ZN4Rcpp10RstreambufILb0EE4syncEv"
 "_ZN4Rcpp10RstreambufILb0EE6xsputnEPKcx"
 "_ZN4Rcpp10RstreambufILb0EE8overflowEi"
 "_ZN4Rcpp10RstreambufILb0EED0Ev"
 "_ZN4Rcpp10RstreambufILb0EED1Ev"
 "_ZN4Rcpp10RstreambufILb1EE4syncEv"
 "_ZN4Rcpp10RstreambufILb1EE6xsputnEPKcx"
 "_ZN4Rcpp10RstreambufILb1EE8overflowEi"
 "_ZN4Rcpp10RstreambufILb1EED0Ev"
 "_ZN4Rcpp10RstreambufILb1EED1Ev"
 "_ZN4Rcpp4stopERKSs"
 "_ZN4Rcpp4stopIIEEEvPKcDpOT_"
 "_ZN4Rcpp8RostreamILb0EED0Ev"
 "_ZN4Rcpp8RostreamILb0EED1Ev"
 "_ZN4Rcpp8RostreamILb1EED0Ev"
 "_ZN4Rcpp8RostreamILb1EED1Ev"
 "_ZN4Rcpp9exceptionC1EPKcb"
 "_ZN4Rcpp9exceptionD0Ev"
 "_ZN4Rcpp9exceptionD1Ev"
 "_ZNK4Rcpp9exception4whatEv"
 "_ZNKSt5ctypeIcE8do_widenEc"
 "_ZNSt15basic_stringbufIcSt11char_traitsIcESaIcEED1Ev"
 "_ZTCN4Rcpp8RostreamILb0EEE0_So"
 "_ZTCN4Rcpp8RostreamILb1EEE0_So"
 "_ZTIN4Rcpp10RstreambufILb0EEE"
 "_ZTIN4Rcpp10RstreambufILb1EEE"
 "_ZTIN4Rcpp8RostreamILb0EEE"
 "_ZTIN4Rcpp8RostreamILb1EEE"
 "_ZTIN4Rcpp9exceptionE"
 "_ZTISt11logic_error"
 "_ZTISt9bad_alloc"
 "_ZTISt9exception"
 "_ZTSN4Rcpp10RstreambufILb0EEE"
 "_ZTSN4Rcpp10RstreambufILb1EEE"
 "_ZTSN4Rcpp8RostreamILb0EEE"
 "_ZTSN4Rcpp8RostreamILb1EEE"
 "_ZTSN4Rcpp9exceptionE"
 "_ZTSSt11logic_error"
 "_ZTSSt9bad_alloc"
 "_ZTSSt9exception"
 "_ZTTN4Rcpp8RostreamILb0EEE"
 "_ZTTN4Rcpp8RostreamILb1EEE"
 "_ZTv0_n24_N4Rcpp8RostreamILb0EED0Ev"
 "_ZTv0_n24_N4Rcpp8RostreamILb0EED1Ev"
 "_ZTv0_n24_N4Rcpp8RostreamILb1EED0Ev"
 "_ZTv0_n24_N4Rcpp8RostreamILb1EED1Ev"
 "_ZTVN4Rcpp10RstreambufILb0EEE"
 "_ZTVN4Rcpp10RstreambufILb1EEE"
 "_ZTVN4Rcpp8RostreamILb0EEE"
 "_ZTVN4Rcpp8RostreamILb1EEE"
 "_ZTVN4Rcpp9exceptionE"
 "_ZZ11stack_tracePKciE3fun"
 "_ZZ20rcpp_set_stack_traceP7SEXPRECE3fun"
 "_ZZN4arma16arma_cerr_streamIcEERSoPSoE11cerr_stream"
 "_Z10gen_arma11jddd"
 "_Z10gen_sarimajRKN4arma3ColIdEEjS3_S3_jS3_djj"
 "_Z11gen_lts_cppjRKN4arma3ColIdEERKSt6vectorISsSaISsEERKNS_5fieldIS1_EE"
 "_Z18gen_generic_sarimajRKN4arma3ColIdEES3_dj"
 "_Z6gen_drjd"
 "_Z6gen_qnjd"
 "_Z6gen_rwjd"
 "_Z6gen_wnjd"
 "_Z7gen_ar1jdd"
 "_Z7gen_ma1jdd"
 "_Z8gen_armajRKN4arma3ColIdEES3_dj"
 "_Z9gen_arimajRKN4arma3ColIdEEjS3_dj"
 "_Z9gen_modeljRKN4arma3ColIdEERKSt6vectorISsSaISsEERKNS_5fieldIS1_EE"
 "_Z9gen_sarmajRKN4arma3ColIdEES3_S3_S3_djj"
 "_ZGVN4arma5DatumIdE3nanE"
 "_ZGVN4arma5DatumIiE3nanE"
 "_ZN4arma14glue_join_cols13apply_noaliasINS_3ColIdEENS_3eOpIS3_NS_7eop_negEEEEEvRNS_3MatINT_9elem_typeEEERKNS_5ProxyIS8_EERKNSC_IT0_EE"
 "_ZN4arma3ColIdEC1ERKS1_"
 "_ZN4arma3ColIdEC1INS_7subviewIdEEEERKNS_4BaseIdT_EE"
 "_ZN4arma3MatIdE5resetEv"
 "_ZN4arma3MatIdE9init_coldEv"
 "_ZN4arma3MatIdE9init_warmEjj"
 "_ZN4arma3MatIdEaSERKNS_7subviewIdEE"
 "_ZN4arma3MatIdED1Ev"
 "_ZN4arma3MatIdED2Ev"
 "_ZN4arma3MatIdEpLERKS1_"
 "_ZN4arma5DatumIdE3nanE"
 "_ZN4arma5DatumIiE3nanE"
 "_ZN4arma5fieldINS_3ColIdEEED1Ev"
 "_ZN4arma7subviewIdE10inplace_opINS_15op_internal_equENS_3MatIdEEEEvRKNS_4BaseIdT0_EEPKc"
 "_ZN4arma7subviewIdE10inplace_opINS_16op_internal_plusEEEvRKS1_PKc"
 "_ZN4arma8arrayops10copy_smallIdEEvPT_PKS2_j"
 "_ZN4arma8arrayops17inplace_set_smallIdEEvPT_S2_j"
 "_ZN4arma8eop_coreINS_7eop_negEE5applyINS_3MatIdEENS_3ColIdEEEEvRT_RKNS_3eOpIT0_S1_EE"
 "_ZN4Rcpp10RstreambufILb0EE4syncEv"
 "_ZN4Rcpp10RstreambufILb0EE6xsputnEPKcx"
 "_ZN4Rcpp10RstreambufILb0EE8overflowEi"
 "_ZN4Rcpp10RstreambufILb0EED0Ev"
 "_ZN4Rcpp10RstreambufILb0EED1Ev"
 "_ZN4Rcpp10RstreambufILb1EE4syncEv"
 "_ZN4Rcpp10RstreambufILb1EE6xsputnEPKcx"
 "_ZN4Rcpp10RstreambufILb1EE8overflowEi"
 "_ZN4Rcpp10RstreambufILb1EED0Ev"
 "_ZN4Rcpp10RstreambufILb1EED1Ev"
 "_ZN4Rcpp8RostreamILb0EED0Ev"
 "_ZN4Rcpp8RostreamILb0EED1Ev"
 "_ZN4Rcpp8RostreamILb1EED0Ev"
 "_ZN4Rcpp8RostreamILb1EED1Ev"
 "_ZNKSt5ctypeIcE8do_widenEc"
 "_ZTCN4Rcpp8RostreamILb0EEE0_So"
 "_ZTCN4Rcpp8RostreamILb1EEE0_So"
 "_ZTIN4Rcpp10RstreambufILb0EEE"
 "_ZTIN4Rcpp10RstreambufILb1EEE"
 "_ZTIN4Rcpp8RostreamILb0EEE"
 "_ZTIN4Rcpp8RostreamILb1EEE"
 "_ZTISt11logic_error"
 "_ZTISt13runtime_error"
 "_ZTISt9bad_alloc"
 "_ZTISt9exception"
 "_ZTSN4Rcpp10RstreambufILb0EEE"
 "_ZTSN4Rcpp10RstreambufILb1EEE"
 "_ZTSN4Rcpp8RostreamILb0EEE"
 "_ZTSN4Rcpp8RostreamILb1EEE"
 "_ZTSSt11logic_error"
 "_ZTSSt13runtime_error"
 "_ZTSSt9bad_alloc"
 "_ZTSSt9exception"
 "_ZTTN4Rcpp8RostreamILb0EEE"
 "_ZTTN4Rcpp8RostreamILb1EEE"
 "_ZTv0_n24_N4Rcpp8RostreamILb0EED0Ev"
 "_ZTv0_n24_N4Rcpp8RostreamILb0EED1Ev"
 "_ZTv0_n24_N4Rcpp8RostreamILb1EED0Ev"
 "_ZTv0_n24_N4Rcpp8RostreamILb1EED1Ev"
 "_ZTVN4Rcpp10RstreambufILb0EEE"
 "_ZTVN4Rcpp10RstreambufILb1EEE"
 "_ZTVN4Rcpp8RostreamILb0EEE"
 "_ZTVN4Rcpp8RostreamILb1EEE"
 "_ZZN4arma16arma_cerr_streamIcEERSoPSoE11cerr_stream"
 "_Z11gmwm_engineRKN4arma3ColIdEERKSt6vectorISsSaISsEERKNS_5fieldIS1_EESsS1_NS_3MatIdEES1_b"
 "_Z15gmwm_master_cppRN4arma3ColIdEES1_RKSt6vectorISsSaISsEERKNS_5fieldIS1_EESsbdSsjjjbd"
 "_Z15gmwm_update_cppN4arma3ColIdEERKSt6vectorISsSaISsEERKNS_5fieldIS1_EESsjddRKNS_3MatIdEERKS1_SE_bSsjjjbd"
 "_Z9code_zeroN4arma3ColIdEE"
 "_ZGVN4arma5DatumIdE3nanE"
 "_ZGVN4arma5DatumIiE3nanE"
 "_ZN4arma14glue_join_cols13apply_noaliasINS_3GenINS_3ColIdEENS_8gen_onesEEENS_3eOpINS_11subview_colIdEENS_7eop_negEEEEEvRNS_3MatINT_9elem_typeEEERKNS_5ProxyISD_EERKNSH_IT0_EE"
 "_ZN4arma3ColIdEaSEOS1_"
 "_ZN4arma3ColIdEC1ERKS1_"
 "_ZN4arma3ColIdEC1INS_7subviewIdEEEERKNS_4BaseIdT_EE"
 "_ZN4arma3MatIdE5resetEv"
 "_ZN4arma3MatIdE9init_warmEjj"
 "_ZN4arma3MatIdE9steal_memERS1_"
 "_ZN4arma3MatIdEaSERKS1_"
 "_ZN4arma3MatIdEC1ERKS1_"
 "_ZN4arma3MatIdED1Ev"
 "_ZN4arma3MatIdED2Ev"
 "_ZN4arma3MatIjE5resetEv"
 "_ZN4arma3MatIjE9init_warmEjj"
 "_ZN4arma3MatIjED1Ev"
 "_ZN4arma5DatumIdE3nanE"
 "_ZN4arma5DatumIiE3nanE"
 "_ZN4arma5fieldINS_3ColIdEEE4initERKS3_"
 "_ZN4arma5fieldINS_3ColIdEEED1Ev"
 "_ZN4arma5fieldINS_3MatIdEEED1Ev"
 "_ZN4arma6op_inv13apply_diagmatINS_3MatIdEEEEvRNS2_INT_9elem_typeEEERKS4_"
 "_ZN4arma8arrayops10copy_smallIdEEvPT_PKS2_j"
 "_ZN4arma8arrayops10copy_smallIjEEvPT_PKS2_j"
 "_ZN4arma8arrayops11inplace_setIdEEvPT_S2_j"
 "_ZN4arma8arrayops17inplace_set_smallIdEEvPT_S2_j"
 "_ZN4Rcpp10RstreambufILb0EE4syncEv"
 "_ZN4Rcpp10RstreambufILb0EE6xsputnEPKcx"
 "_ZN4Rcpp10RstreambufILb0EE8overflowEi"
 "_ZN4Rcpp10RstreambufILb0EED0Ev"
 "_ZN4Rcpp10RstreambufILb0EED1Ev"
 "_ZN4Rcpp10RstreambufILb1EE4syncEv"
 "_ZN4Rcpp10RstreambufILb1EE6xsputnEPKcx"
 "_ZN4Rcpp10RstreambufILb1EE8overflowEi"
 "_ZN4Rcpp10RstreambufILb1EED0Ev"
 "_ZN4Rcpp10RstreambufILb1EED1Ev"
 "_ZN4Rcpp8RostreamILb0EED0Ev"
 "_ZN4Rcpp8RostreamILb0EED1Ev"
 "_ZN4Rcpp8RostreamILb1EED0Ev"
 "_ZN4Rcpp8RostreamILb1EED1Ev"
 "_ZNSt3mapISsiSt4lessISsESaISt4pairIKSsiEEEixEOSs"
 "_ZNSt8_Rb_treeISsSt4pairIKSsiESt10_Select1stIS2_ESt4lessISsESaIS2_EE22_M_emplace_hint_uniqueIIRKSt21piecewise_construct_tSt5tupleIIOSsEESD_IIEEEEESt17_Rb_tree_iteratorIS2_ESt23_Rb_tree_const_iteratorIS2_EDpOT_"
 "_ZNSt8_Rb_treeISsSt4pairIKSsiESt10_Select1stIS2_ESt4lessISsESaIS2_EE24_M_get_insert_unique_posERS1_"
 "_ZNSt8_Rb_treeISsSt4pairIKSsiESt10_Select1stIS2_ESt4lessISsESaIS2_EE8_M_eraseEPSt13_Rb_tree_nodeIS2_E"
 "_ZTCN4Rcpp8RostreamILb0EEE0_So"
 "_ZTCN4Rcpp8RostreamILb1EEE0_So"
 "_ZTIN4Rcpp10RstreambufILb0EEE"
 "_ZTIN4Rcpp10RstreambufILb1EEE"
 "_ZTIN4Rcpp8RostreamILb0EEE"
 "_ZTIN4Rcpp8RostreamILb1EEE"
 "_ZTISt11logic_error"
 "_ZTISt13runtime_error"
 "_ZTISt9bad_alloc"
 "_ZTISt9exception"
 "_ZTSN4Rcpp10RstreambufILb0EEE"
 "_ZTSN4Rcpp10RstreambufILb1EEE"
 "_ZTSN4Rcpp8RostreamILb0EEE"
 "_ZTSN4Rcpp8RostreamILb1EEE"
 "_ZTSSt11logic_error"
 "_ZTSSt13runtime_error"
 "_ZTSSt9bad_alloc"
 "_ZTSSt9exception"
 "_ZTTN4Rcpp8RostreamILb0EEE"
 "_ZTTN4Rcpp8RostreamILb1EEE"
 "_ZTv0_n24_N4Rcpp8RostreamILb0EED0Ev"
 "_ZTv0_n24_N4Rcpp8RostreamILb0EED1Ev"
 "_ZTv0_n24_N4Rcpp8RostreamILb1EED0Ev"
 "_ZTv0_n24_N4Rcpp8RostreamILb1EED1Ev"
 "_ZTVN4Rcpp10RstreambufILb0EEE"
 "_ZTVN4Rcpp10RstreambufILb1EEE"
 "_ZTVN4Rcpp8RostreamILb0EEE"
 "_ZTVN4Rcpp8RostreamILb1EEE"
 "_ZZN4arma16arma_cerr_streamIcEERSoPSoE11cerr_stream"
 "_Z10arma_drawsjjd"
 "_Z10draw_driftd"
 "_Z11dom_processddd"
 "_Z11draw_qn_domd"
 "_Z11draw_wn_domd"
 "_Z12draw_qn_weakd"
 "_Z12draw_wn_weakd"
 "_Z13guess_initialRKSt6vectorISsSaISsEERKN4arma5fieldINS4_3ColIdEEEESsjdjRKNS4_3MatIdEERKS7_dj"
 "_Z15draw_ar1_memorydd"
 "_Z17guess_initial_oldRKSt6vectorISsSaISsEERKN4arma5fieldINS4_3ColIdEEEESsjdjRKS7_SC_j"
 "_Z19draw_ar1_memory_adddd"
 "_Z21draw_ar1_memory_largedd"
 "_Z7draw_rwdi"
 "_Z8ar1_drawjddSs"
 "_Z8dr_slopeRKN4arma3ColIdEE"
 "_Z8draw_ar1d"
 "_ZGVN4arma5DatumIdE3nanE"
 "_ZGVN4arma5DatumIiE3nanE"
 "_ZN4arma3MatIdE5resetEv"
 "_ZN4arma3MatIdE9init_coldEv"
 "_ZN4arma3MatIdE9init_warmEjj"
 "_ZN4arma3MatIdE9steal_memERS1_"
 "_ZN4arma3MatIdED1Ev"
 "_ZN4arma3MatIdED2Ev"
 "_ZN4arma5DatumIdE3nanE"
 "_ZN4arma5DatumIiE3nanE"
 "_ZN4arma7subviewIdE10inplace_opINS_15op_internal_equENS_3MatIdEEEEvRKNS_4BaseIdT0_EEPKc"
 "_ZN4arma8arrayops10copy_smallIdEEvPT_PKS2_j"
 "_ZN4arma8arrayops17inplace_set_smallIdEEvPT_S2_j"
 "_ZN4Rcpp10RstreambufILb0EE4syncEv"
 "_ZN4Rcpp10RstreambufILb0EE6xsputnEPKcx"
 "_ZN4Rcpp10RstreambufILb0EE8overflowEi"
 "_ZN4Rcpp10RstreambufILb0EED0Ev"
 "_ZN4Rcpp10RstreambufILb0EED1Ev"
 "_ZN4Rcpp10RstreambufILb1EE4syncEv"
 "_ZN4Rcpp10RstreambufILb1EE6xsputnEPKcx"
 "_ZN4Rcpp10RstreambufILb1EE8overflowEi"
 "_ZN4Rcpp10RstreambufILb1EED0Ev"
 "_ZN4Rcpp10RstreambufILb1EED1Ev"
 "_ZN4Rcpp8RostreamILb0EED0Ev"
 "_ZN4Rcpp8RostreamILb0EED1Ev"
 "_ZN4Rcpp8RostreamILb1EED0Ev"
 "_ZN4Rcpp8RostreamILb1EED1Ev"
 "_ZNSt3mapISsiSt4lessISsESaISt4pairIKSsiEEEixEOSs"
 "_ZNSt8_Rb_treeISsSt4pairIKSsiESt10_Select1stIS2_ESt4lessISsESaIS2_EE22_M_emplace_hint_uniqueIIRKSt21piecewise_construct_tSt5tupleIIOSsEESD_IIEEEEESt17_Rb_tree_iteratorIS2_ESt23_Rb_tree_const_iteratorIS2_EDpOT_"
 "_ZNSt8_Rb_treeISsSt4pairIKSsiESt10_Select1stIS2_ESt4lessISsESaIS2_EE24_M_get_insert_unique_posERS1_"
 "_ZNSt8_Rb_treeISsSt4pairIKSsiESt10_Select1stIS2_ESt4lessISsESaIS2_EE8_M_eraseEPSt13_Rb_tree_nodeIS2_E"
 "_ZTCN4Rcpp8RostreamILb0EEE0_So"
 "_ZTCN4Rcpp8RostreamILb1EEE0_So"
 "_ZTIN4Rcpp10RstreambufILb0EEE"
 "_ZTIN4Rcpp10RstreambufILb1EEE"
 "_ZTIN4Rcpp8RostreamILb0EEE"
 "_ZTIN4Rcpp8RostreamILb1EEE"
 "_ZTISt11logic_error"
 "_ZTISt9bad_alloc"
 "_ZTISt9exception"
 "_ZTSN4Rcpp10RstreambufILb0EEE"
 "_ZTSN4Rcpp10RstreambufILb1EEE"
 "_ZTSN4Rcpp8RostreamILb0EEE"
 "_ZTSN4Rcpp8RostreamILb1EEE"
 "_ZTSSt11logic_error"
 "_ZTSSt9bad_alloc"
 "_ZTSSt9exception"
 "_ZTTN4Rcpp8RostreamILb0EEE"
 "_ZTTN4Rcpp8RostreamILb1EEE"
 "_ZTv0_n24_N4Rcpp8RostreamILb0EED0Ev"
 "_ZTv0_n24_N4Rcpp8RostreamILb0EED1Ev"
 "_ZTv0_n24_N4Rcpp8RostreamILb1EED0Ev"
 "_ZTv0_n24_N4Rcpp8RostreamILb1EED1Ev"
 "_ZTVN4Rcpp10RstreambufILb0EEE"
 "_ZTVN4Rcpp10RstreambufILb1EEE"
 "_ZTVN4Rcpp8RostreamILb0EEE"
 "_ZTVN4Rcpp8RostreamILb1EEE"
 "_ZZN4arma16arma_cerr_streamIcEERSoPSoE11cerr_stream"
 "_Z12hadam_mo_cppN4arma3ColIdEE"
 "_Z12hadam_to_cppN4arma3ColIdEE"
 "_ZGVN4arma5DatumIdE3nanE"
 "_ZGVN4arma5DatumIiE3nanE"
 "_ZN4arma3MatIdED2Ev"
 "_ZN4arma5DatumIdE3nanE"
 "_ZN4arma5DatumIiE3nanE"
 "_ZN4arma8arrayops17inplace_set_smallIdEEvPT_S2_j"
 "_ZN4Rcpp10RstreambufILb0EE4syncEv"
 "_ZN4Rcpp10RstreambufILb0EE6xsputnEPKcx"
 "_ZN4Rcpp10RstreambufILb0EE8overflowEi"
 "_ZN4Rcpp10RstreambufILb0EED0Ev"
 "_ZN4Rcpp10RstreambufILb0EED1Ev"
 "_ZN4Rcpp10RstreambufILb1EE4syncEv"
 "_ZN4Rcpp10RstreambufILb1EE6xsputnEPKcx"
 "_ZN4Rcpp10RstreambufILb1EE8overflowEi"
 "_ZN4Rcpp10RstreambufILb1EED0Ev"
 "_ZN4Rcpp10RstreambufILb1EED1Ev"
 "_ZN4Rcpp8RostreamILb0EED0Ev"
 "_ZN4Rcpp8RostreamILb0EED1Ev"
 "_ZN4Rcpp8RostreamILb1EED0Ev"
 "_ZN4Rcpp8RostreamILb1EED1Ev"
 "_ZTCN4Rcpp8RostreamILb0EEE0_So"
 "_ZTCN4Rcpp8RostreamILb1EEE0_So"
 "_ZTIN4Rcpp10RstreambufILb0EEE"
 "_ZTIN4Rcpp10RstreambufILb1EEE"
 "_ZTIN4Rcpp8RostreamILb0EEE"
 "_ZTIN4Rcpp8RostreamILb1EEE"
 "_ZTISt11logic_error"
 "_ZTISt9bad_alloc"
 "_ZTISt9exception"
 "_ZTSN4Rcpp10RstreambufILb0EEE"
 "_ZTSN4Rcpp10RstreambufILb1EEE"
 "_ZTSN4Rcpp8RostreamILb0EEE"
 "_ZTSN4Rcpp8RostreamILb1EEE"
 "_ZTSSt11logic_error"
 "_ZTSSt9bad_alloc"
 "_ZTSSt9exception"
 "_ZTTN4Rcpp8RostreamILb0EEE"
 "_ZTTN4Rcpp8RostreamILb1EEE"
 "_ZTv0_n24_N4Rcpp8RostreamILb0EED0Ev"
 "_ZTv0_n24_N4Rcpp8RostreamILb0EED1Ev"
 "_ZTv0_n24_N4Rcpp8RostreamILb1EED0Ev"
 "_ZTv0_n24_N4Rcpp8RostreamILb1EED1Ev"
 "_ZTVN4Rcpp10RstreambufILb0EEE"
 "_ZTVN4Rcpp10RstreambufILb1EEE"
 "_ZTVN4Rcpp8RostreamILb0EEE"
 "_ZTVN4Rcpp8RostreamILb1EEE"
 "_ZZN4arma16arma_cerr_streamIcEERSoPSoE11cerr_stream"
 "_Z14idf_arma_totalRKN4arma3ColIdEES3_djbdj"
 "_Z8idf_armaRKN4arma3ColIdEES3_djbdj"
 "_ZGVN4arma5DatumIdE3nanE"
 "_ZGVN4arma5DatumIiE3nanE"
 "_ZGVZ11stack_tracePKciE3fun"
 "_ZGVZ20rcpp_set_stack_traceP7SEXPRECE3fun"
 "_ZGVZ7dataptrP7SEXPRECE3fun"
 "_ZN10tinyformat6detail10formatImplERSoPKcPKNS0_9FormatArgEi"
 "_ZN10tinyformat6detail21streamStateFromFormatERSoRbRiPKcPKNS0_9FormatArgES3_i"
 "_ZN10tinyformat6detail9FormatArg10formatImplIPKcEEvRSoS4_S4_iPKv"
 "_ZN10tinyformat6detail9FormatArg9toIntImplIPKcEEiPKv"
 "_ZN10tinyformat6formatIIEEESsPKcDpRKT_"
 "_ZN10tinyformat6formatIIPKcEEESsS2_DpRKT_"
 "_ZN4arma3MatIdE9init_warmEjj"
 "_ZN4arma3MatIdED1Ev"
 "_ZN4arma3MatIdED2Ev"
 "_ZN4arma5DatumIdE3nanE"
 "_ZN4arma5DatumIiE3nanE"
 "_ZN4arma5fieldINS_3ColIdEEED1Ev"
 "_ZN4arma8arrayops10copy_smallIdEEvPT_PKS2_j"
 "_ZN4arma8arrayops17inplace_set_smallIdEEvPT_S2_j"
 "_ZN4Rcpp10eval_errorD0Ev"
 "_ZN4Rcpp10eval_errorD1Ev"
 "_ZN4Rcpp10RstreambufILb0EE4syncEv"
 "_ZN4Rcpp10RstreambufILb0EE6xsputnEPKcx"
 "_ZN4Rcpp10RstreambufILb0EE8overflowEi"
 "_ZN4Rcpp10RstreambufILb0EED0Ev"
 "_ZN4Rcpp10RstreambufILb0EED1Ev"
 "_ZN4Rcpp10RstreambufILb1EE4syncEv"
 "_ZN4Rcpp10RstreambufILb1EE6xsputnEPKcx"
 "_ZN4Rcpp10RstreambufILb1EE8overflowEi"
 "_ZN4Rcpp10RstreambufILb1EED0Ev"
 "_ZN4Rcpp10RstreambufILb1EED1Ev"
 "_ZN4Rcpp14not_compatibleC1IIPKcEEES3_DpOT_"
 "_ZN4Rcpp14not_compatibleD0Ev"
 "_ZN4Rcpp14not_compatibleD1Ev"
 "_ZN4Rcpp16Environment_ImplINS_15PreserveStorageEEC1ERKSs"
 "_ZN4Rcpp4growIiEEP7SEXPRECRKT_S2_"
 "_ZN4Rcpp4stopERKSs"
 "_ZN4Rcpp4stopIIEEEvPKcDpOT_"
 "_ZN4Rcpp8RostreamILb0EED0Ev"
 "_ZN4Rcpp8RostreamILb0EED1Ev"
 "_ZN4Rcpp8RostreamILb1EED0Ev"
 "_ZN4Rcpp8RostreamILb1EED1Ev"
 "_ZN4Rcpp9exceptionC1EPKcb"
 "_ZN4Rcpp9exceptionD0Ev"
 "_ZN4Rcpp9exceptionD1Ev"
 "_ZNK4Rcpp10eval_error4whatEv"
 "_ZNK4Rcpp13BindingPolicyINS_16Environment_ImplINS_15PreserveStorageEEEE7BindingcvT_INS_13Function_ImplIS2_EEEEv"
 "_ZNK4Rcpp14not_compatible4whatEv"
 "_ZNK4Rcpp9exception4whatEv"
 "_ZNKSt5ctypeIcE8do_widenEc"
 "_ZNSt15basic_stringbufIcSt11char_traitsIcESaIcEED1Ev"
 "_ZTCN4Rcpp8RostreamILb0EEE0_So"
 "_ZTCN4Rcpp8RostreamILb1EEE0_So"
 "_ZTIN4Rcpp10eval_errorE"
 "_ZTIN4Rcpp10RstreambufILb0EEE"
 "_ZTIN4Rcpp10RstreambufILb1EEE"
 "_ZTIN4Rcpp14not_compatibleE"
 "_ZTIN4Rcpp8internal20InterruptedExceptionE"
 "_ZTIN4Rcpp8RostreamILb0EEE"
 "_ZTIN4Rcpp8RostreamILb1EEE"
 "_ZTIN4Rcpp9exceptionE"
 "_ZTISt11logic_error"
 "_ZTISt9bad_alloc"
 "_ZTISt9exception"
 "_ZTSN4Rcpp10eval_errorE"
 "_ZTSN4Rcpp10RstreambufILb0EEE"
 "_ZTSN4Rcpp10RstreambufILb1EEE"
 "_ZTSN4Rcpp14not_compatibleE"
 "_ZTSN4Rcpp8internal20InterruptedExceptionE"
 "_ZTSN4Rcpp8RostreamILb0EEE"
 "_ZTSN4Rcpp8RostreamILb1EEE"
 "_ZTSN4Rcpp9exceptionE"
 "_ZTSSt11logic_error"
 "_ZTSSt9bad_alloc"
 "_ZTSSt9exception"
 "_ZTTN4Rcpp8RostreamILb0EEE"
 "_ZTTN4Rcpp8RostreamILb1EEE"
 "_ZTv0_n24_N4Rcpp8RostreamILb0EED0Ev"
 "_ZTv0_n24_N4Rcpp8RostreamILb0EED1Ev"
 "_ZTv0_n24_N4Rcpp8RostreamILb1EED0Ev"
 "_ZTv0_n24_N4Rcpp8RostreamILb1EED1Ev"
 "_ZTVN4Rcpp10eval_errorE"
 "_ZTVN4Rcpp10RstreambufILb0EEE"
 "_ZTVN4Rcpp10RstreambufILb1EEE"
 "_ZTVN4Rcpp14not_compatibleE"
 "_ZTVN4Rcpp8RostreamILb0EEE"
 "_ZTVN4Rcpp8RostreamILb1EEE"
 "_ZTVN4Rcpp9exceptionE"
 "_ZZ11stack_tracePKciE3fun"
 "_ZZ20rcpp_set_stack_traceP7SEXPRECE3fun"
 "_ZZ7dataptrP7SEXPRECE3fun"
 "_ZZN4arma16arma_cerr_streamIcEERSoPSoE11cerr_stream"
 "_Z18bootstrap_gof_testdN4arma3ColIdEEdb"
 "_Z20calculate_psi_matrixRKN4arma3MatIdEES3_S3_"
 "_Z8gof_testN4arma3ColIdEERKSt6vectorISsSaISsEERKNS_5fieldIS1_EESsRKS1_RKNS_3MatIdEESC_"
 "_Z8theta_ciRKN4arma3ColIdEERKNS_3MatIdEES7_S7_d"
 "_Z9format_ciRKN4arma3ColIdEES3_d"
 "_ZGVN4arma5DatumIdE3nanE"
 "_ZGVN4arma5DatumIiE3nanE"
 "_ZN4arma10arma_checkIA55_cEEvbRKT_"
 "_ZN4arma10glue_times5applyIdLb0ELb0ELb0ENS_3MatIdEES3_EEvRNS2_IT_EERKT3_RKT4_S4_"
 "_ZN4arma10glue_times5applyIdLb0ELb1ELb0ENS_3MatIdEES3_EEvRNS2_IT_EERKT3_RKT4_S4_"
 "_ZN4arma12unwrap_checkINS_3MatIdEEED1Ev"
 "_ZN4arma15glue_times_diag5applyINS_7subviewIdEENS_2OpINS_3ColIdEENS_10op_diagmatEEEEEvRNS_3MatINT_9elem_typeEEERKNS_4GlueISA_T0_S0_EE"
 "_ZN4arma16gemm_emul_tinysqILb0ELb0ELb0EE5applyIdNS_3MatIdEES4_EEvRNS3_IT_EERKT0_RKT1_S5_S5_"
 "_ZN4arma16gemv_emul_tinysqILb0ELb0ELb0EE5applyIdNS_3MatIdEEEEvPT_RKT0_PKS5_S5_S5_"
 "_ZN4arma16gemv_emul_tinysqILb1ELb0ELb0EE5applyIdNS_3MatIdEEEEvPT_RKT0_PKS5_S5_S5_"
 "_ZN4arma19diagmat_proxy_checkINS_3ColIdEEED1Ev"
 "_ZN4arma3MatIdE10soft_resetEv"
 "_ZN4arma3MatIdE3eyeEv"
 "_ZN4arma3MatIdE5resetEv"
 "_ZN4arma3MatIdE9init_coldEv"
 "_ZN4arma3MatIdE9init_warmEjj"
 "_ZN4arma3MatIdE9steal_memERS1_"
 "_ZN4arma3MatIdEaSERKS1_"
 "_ZN4arma3MatIdED1Ev"
 "_ZN4arma3MatIdED2Ev"
 "_ZN4arma5DatumIdE3nanE"
 "_ZN4arma5DatumIiE3nanE"
 "_ZN4arma6auxlib8inv_tinyIdEEbRNS_3MatIT_EERKS4_"
 "_ZN4arma6auxlib8svd_econIdNS_2OpINS_3MatIdEENS_9op_htransEEEEEbRNS3_IT_EERNS_3ColIS7_EES9_RKNS_4BaseIS7_T0_EEc"
 "_ZN4arma7op_pinv12apply_directINS_4GlueINS2_INS_3MatIdEES4_NS_10glue_timesEEES4_S5_EEEEbRNS3_INT_9elem_typeEEERKNS_4BaseIS9_S8_EENS8_8pod_typeEb"
 "_ZN4arma8arrayops10copy_smallIdEEvPT_PKS2_j"
 "_ZN4arma8arrayops11inplace_setIdEEvPT_S2_j"
 "_ZN4arma8arrayops17inplace_set_smallIdEEvPT_S2_j"
 "_ZN4arma9op_strans17apply_mat_inplaceIdEEvRNS_3MatIT_EE"
 "_ZN4arma9op_strans23apply_mat_noalias_largeIdEEvRNS_3MatIT_EERKS4_"
 "_ZN4arma9op_strans24apply_mat_noalias_tinysqIdNS_3MatIdEEEEvRNS2_IT_EERKT0_"
 "_ZN4Rcpp10RstreambufILb0EE4syncEv"
 "_ZN4Rcpp10RstreambufILb0EE6xsputnEPKcx"
 "_ZN4Rcpp10RstreambufILb0EE8overflowEi"
 "_ZN4Rcpp10RstreambufILb0EED0Ev"
 "_ZN4Rcpp10RstreambufILb0EED1Ev"
 "_ZN4Rcpp10RstreambufILb1EE4syncEv"
 "_ZN4Rcpp10RstreambufILb1EE6xsputnEPKcx"
 "_ZN4Rcpp10RstreambufILb1EE8overflowEi"
 "_ZN4Rcpp10RstreambufILb1EED0Ev"
 "_ZN4Rcpp10RstreambufILb1EED1Ev"
 "_ZN4Rcpp8RostreamILb0EED0Ev"
 "_ZN4Rcpp8RostreamILb0EED1Ev"
 "_ZN4Rcpp8RostreamILb1EED0Ev"
 "_ZN4Rcpp8RostreamILb1EED1Ev"
 "_ZTCN4Rcpp8RostreamILb0EEE0_So"
 "_ZTCN4Rcpp8RostreamILb1EEE0_So"
 "_ZTIN4Rcpp10RstreambufILb0EEE"
 "_ZTIN4Rcpp10RstreambufILb1EEE"
 "_ZTIN4Rcpp8RostreamILb0EEE"
 "_ZTIN4Rcpp8RostreamILb1EEE"
 "_ZTISt11logic_error"
 "_ZTISt13runtime_error"
 "_ZTISt9bad_alloc"
 "_ZTISt9exception"
 "_ZTSN4Rcpp10RstreambufILb0EEE"
 "_ZTSN4Rcpp10RstreambufILb1EEE"
 "_ZTSN4Rcpp8RostreamILb0EEE"
 "_ZTSN4Rcpp8RostreamILb1EEE"
 "_ZTSSt11logic_error"
 "_ZTSSt13runtime_error"
 "_ZTSSt9bad_alloc"
 "_ZTSSt9exception"
 "_ZTTN4Rcpp8RostreamILb0EEE"
 "_ZTTN4Rcpp8RostreamILb1EEE"
 "_ZTv0_n24_N4Rcpp8RostreamILb0EED0Ev"
 "_ZTv0_n24_N4Rcpp8RostreamILb0EED1Ev"
 "_ZTv0_n24_N4Rcpp8RostreamILb1EED0Ev"
 "_ZTv0_n24_N4Rcpp8RostreamILb1EED1Ev"
 "_ZTVN4Rcpp10RstreambufILb0EEE"
 "_ZTVN4Rcpp10RstreambufILb1EEE"
 "_ZTVN4Rcpp8RostreamILb0EEE"
 "_ZTVN4Rcpp8RostreamILb1EEE"
 "_ZZN4arma16arma_cerr_streamIcEERSoPSoE11cerr_stream"
 "_Z5lm_drRKN4arma3ColIdEE"
 "_Z7lm_armaRKN4arma3ColIdEERKNS_3MatIdEE"
 "_ZGVN4arma5DatumIdE3nanE"
 "_ZGVN4arma5DatumIiE3nanE"
 "_ZN4arma14glue_solve_gen5applyIdNS_3MatIdEES3_EEbRNS2_IT_EERKNS_4BaseIS4_T0_EERKNS7_IS4_T1_EEj"
 "_ZN4arma15gemm_emul_largeILb0ELb0ELb0ELb0EE5applyIdNS_3MatIdEES4_EEvRNS3_IT_EERKT0_RKT1_S5_S5_"
 "_ZN4arma16gemv_emul_tinysqILb0ELb0ELb0EE5applyIdNS_3MatIdEEEEvPT_RKT0_PKS5_S5_S5_"
 "_ZN4arma16gemv_emul_tinysqILb1ELb0ELb0EE5applyIdNS_3ColIdEEEEvPT_RKT0_PKS5_S5_S5_"
 "_ZN4arma3MatIdE5resetEv"
 "_ZN4arma3MatIdE5zerosEjj"
 "_ZN4arma3MatIdE9init_coldEv"
 "_ZN4arma3MatIdE9init_warmEjj"
 "_ZN4arma3MatIdE9steal_memERS1_"
 "_ZN4arma3MatIdED1Ev"
 "_ZN4arma3MatIdED2Ev"
 "_ZN4arma5DatumIdE3nanE"
 "_ZN4arma5DatumIiE3nanE"
 "_ZN4arma5fieldINS_3ColIdEEED1Ev"
 "_ZN4arma6auxlib16solve_approx_svdINS_3MatIdEEEEbRNS2_INT_8pod_typeEEES7_RKNS_4BaseIS5_S4_EE"
 "_ZN4arma6auxlib17solve_band_refineINS_3MatIdEEEEbRNS2_INT_8pod_typeEEERS5_S7_jjRKNS_4BaseIS5_S4_EEbb"
 "_ZN4arma6auxlib17solve_square_fastINS_3MatIdEEEEbRNS2_INT_9elem_typeEEES7_RKNS_4BaseIS5_S4_EE"
 "_ZN4arma6auxlib17solve_square_tinyINS_3MatIdEEEEbRNS2_INT_9elem_typeEEERKS6_RKNS_4BaseIS5_S4_EE"
 "_ZN4arma6auxlib19solve_square_refineINS_3MatIdEEEEbRNS2_INT_8pod_typeEEERS5_S7_RKNS_4BaseIS5_S4_EEbb"
 "_ZN4arma6auxlib20solve_tridiag_refineINS_3MatIdEEEEbRNS2_INT_8pod_typeEEERS5_S7_RKNS_4BaseIS5_S4_EEb"
 "_ZN4arma6auxlib25solve_tridiag_fast_commonINS_3MatIdEEEEbRNS2_INT_9elem_typeEEERKS6_RKNS_4BaseIS5_S4_EE"
 "_ZN4arma6auxlib8inv_tinyIdEEbRNS_3MatIT_EERKS4_"
 "_ZN4arma8arrayops10copy_smallIdEEvPT_PKS2_j"
 "_ZN4arma8arrayops11inplace_setIdEEvPT_S2_j"
 "_ZN4arma8arrayops17inplace_set_smallIdEEvPT_S2_j"
 "_ZN4Rcpp10RstreambufILb0EE4syncEv"
 "_ZN4Rcpp10RstreambufILb0EE6xsputnEPKcx"
 "_ZN4Rcpp10RstreambufILb0EE8overflowEi"
 "_ZN4Rcpp10RstreambufILb0EED0Ev"
 "_ZN4Rcpp10RstreambufILb0EED1Ev"
 "_ZN4Rcpp10RstreambufILb1EE4syncEv"
 "_ZN4Rcpp10RstreambufILb1EE6xsputnEPKcx"
 "_ZN4Rcpp10RstreambufILb1EE8overflowEi"
 "_ZN4Rcpp10RstreambufILb1EED0Ev"
 "_ZN4Rcpp10RstreambufILb1EED1Ev"
 "_ZN4Rcpp8RostreamILb0EED0Ev"
 "_ZN4Rcpp8RostreamILb0EED1Ev"
 "_ZN4Rcpp8RostreamILb1EED0Ev"
 "_ZN4Rcpp8RostreamILb1EED1Ev"
 "_ZTCN4Rcpp8RostreamILb0EEE0_So"
 "_ZTCN4Rcpp8RostreamILb1EEE0_So"
 "_ZTIN4Rcpp10RstreambufILb0EEE"
 "_ZTIN4Rcpp10RstreambufILb1EEE"
 "_ZTIN4Rcpp8RostreamILb0EEE"
 "_ZTIN4Rcpp8RostreamILb1EEE"
 "_ZTISt11logic_error"
 "_ZTISt13runtime_error"
 "_ZTISt9bad_alloc"
 "_ZTISt9exception"
 "_ZTSN4Rcpp10RstreambufILb0EEE"
 "_ZTSN4Rcpp10RstreambufILb1EEE"
 "_ZTSN4Rcpp8RostreamILb0EEE"
 "_ZTSN4Rcpp8RostreamILb1EEE"
 "_ZTSSt11logic_error"
 "_ZTSSt13runtime_error"
 "_ZTSSt9bad_alloc"
 "_ZTSSt9exception"
 "_ZTTN4Rcpp8RostreamILb0EEE"
 "_ZTTN4Rcpp8RostreamILb1EEE"
 "_ZTv0_n24_N4Rcpp8RostreamILb0EED0Ev"
 "_ZTv0_n24_N4Rcpp8RostreamILb0EED1Ev"
 "_ZTv0_n24_N4Rcpp8RostreamILb1EED0Ev"
 "_ZTv0_n24_N4Rcpp8RostreamILb1EED1Ev"
 "_ZTVN4Rcpp10RstreambufILb0EEE"
 "_ZTVN4Rcpp10RstreambufILb1EEE"
 "_ZTVN4Rcpp8RostreamILb0EEE"
 "_ZTVN4Rcpp8RostreamILb1EEE"
 "_ZZN4arma16arma_cerr_streamIcEERSoPSoE11cerr_stream"
 "_Z11model_scoreN4arma3MatIdEES1_S1_S1_d"
 "_Z8B_matrixRKN4arma3MatIdEES3_"
 "_ZGVN4arma5DatumIdE3nanE"
 "_ZGVN4arma5DatumIiE3nanE"
 "_ZN4arma10glue_times5applyIdLb0ELb0ELb0ELb0ELb1ENS_3MatIdEES3_S3_S3_EEvRNS2_IT_EERKT5_RKT6_RKT7_RKT8_S4_"
 "_ZN4arma10glue_times5applyIdLb0ELb0ELb0ENS_3MatIdEES3_EEvRNS2_IT_EERKT3_RKT4_S4_"
 "_ZN4arma10glue_times5applyIdLb0ELb1ELb0ENS_3MatIdEES3_EEvRNS2_IT_EERKT3_RKT4_S4_"
 "_ZN4arma12unwrap_checkINS_3MatIdEEED1Ev"
 "_ZN4arma15glue_times_diag5applyINS_7subviewIdEENS_2OpINS_3ColIdEENS_10op_diagmatEEEEEvRNS_3MatINT_9elem_typeEEERKNS_4GlueISA_T0_S0_EE"
 "_ZN4arma16gemm_emul_tinysqILb0ELb0ELb0EE5applyIdNS_3MatIdEES4_EEvRNS3_IT_EERKT0_RKT1_S5_S5_"
 "_ZN4arma16gemm_emul_tinysqILb0ELb1ELb0EE5applyIdNS_3MatIdEES4_EEvRNS3_IT_EERKT0_RKT1_S5_S5_"
 "_ZN4arma16gemv_emul_tinysqILb0ELb0ELb0EE5applyIdNS_3MatIdEEEEvPT_RKT0_PKS5_S5_S5_"
 "_ZN4arma16gemv_emul_tinysqILb0ELb1ELb0EE5applyIdNS_3MatIdEEEEvPT_RKT0_PKS5_S5_S5_"
 "_ZN4arma16gemv_emul_tinysqILb1ELb0ELb0EE5applyIdNS_3ColIdEEEEvPT_RKT0_PKS5_S5_S5_"
 "_ZN4arma16gemv_emul_tinysqILb1ELb0ELb0EE5applyIdNS_3MatIdEEEEvPT_RKT0_PKS5_S5_S5_"
 "_ZN4arma16gemv_emul_tinysqILb1ELb1ELb0EE5applyIdNS_3MatIdEEEEvPT_RKT0_PKS5_S5_S5_"
 "_ZN4arma19diagmat_proxy_checkINS_3ColIdEEED1Ev"
 "_ZN4arma3MatIdE3eyeEv"
 "_ZN4arma3MatIdE5resetEv"
 "_ZN4arma3MatIdE9init_coldEv"
 "_ZN4arma3MatIdE9init_warmEjj"
 "_ZN4arma3MatIdE9steal_memERS1_"
 "_ZN4arma3MatIdED1Ev"
 "_ZN4arma3MatIdED2Ev"
 "_ZN4arma5DatumIdE3nanE"
 "_ZN4arma5DatumIiE3nanE"
 "_ZN4arma6auxlib8svd_econIdNS_2OpINS_3MatIdEENS_9op_htransEEEEEbRNS3_IT_EERNS_3ColIS7_EES9_RKNS_4BaseIS7_T0_EEc"
 "_ZN4arma7op_pinv12apply_directINS_4GlueINS_3MatIdEES4_NS_10glue_timesEEEEEbRNS3_INT_9elem_typeEEERKNS_4BaseIS8_S7_EENS7_8pod_typeEb"
 "_ZN4arma8arrayops10copy_smallIdEEvPT_PKS2_j"
 "_ZN4arma8arrayops11inplace_setIdEEvPT_S2_j"
 "_ZN4arma8arrayops17inplace_set_smallIdEEvPT_S2_j"
 "_ZN4arma9op_strans17apply_mat_inplaceIdEEvRNS_3MatIT_EE"
 "_ZN4arma9op_strans23apply_mat_noalias_largeIdEEvRNS_3MatIT_EERKS4_"
 "_ZN4arma9op_strans24apply_mat_noalias_tinysqIdNS_3MatIdEEEEvRNS2_IT_EERKT0_"
 "_ZN4Rcpp10RstreambufILb0EE4syncEv"
 "_ZN4Rcpp10RstreambufILb0EE6xsputnEPKcx"
 "_ZN4Rcpp10RstreambufILb0EE8overflowEi"
 "_ZN4Rcpp10RstreambufILb0EED0Ev"
 "_ZN4Rcpp10RstreambufILb0EED1Ev"
 "_ZN4Rcpp10RstreambufILb1EE4syncEv"
 "_ZN4Rcpp10RstreambufILb1EE6xsputnEPKcx"
 "_ZN4Rcpp10RstreambufILb1EE8overflowEi"
 "_ZN4Rcpp10RstreambufILb1EED0Ev"
 "_ZN4Rcpp10RstreambufILb1EED1Ev"
 "_ZN4Rcpp8RostreamILb0EED0Ev"
 "_ZN4Rcpp8RostreamILb0EED1Ev"
 "_ZN4Rcpp8RostreamILb1EED0Ev"
 "_ZN4Rcpp8RostreamILb1EED1Ev"
 "_ZTCN4Rcpp8RostreamILb0EEE0_So"
 "_ZTCN4Rcpp8RostreamILb1EEE0_So"
 "_ZTIN4Rcpp10RstreambufILb0EEE"
 "_ZTIN4Rcpp10RstreambufILb1EEE"
 "_ZTIN4Rcpp8RostreamILb0EEE"
 "_ZTIN4Rcpp8RostreamILb1EEE"
 "_ZTISt11logic_error"
 "_ZTISt13runtime_error"
 "_ZTISt9bad_alloc"
 "_ZTISt9exception"
 "_ZTSN4Rcpp10RstreambufILb0EEE"
 "_ZTSN4Rcpp10RstreambufILb1EEE"
 "_ZTSN4Rcpp8RostreamILb0EEE"
 "_ZTSN4Rcpp8RostreamILb1EEE"
 "_ZTSSt11logic_error"
 "_ZTSSt13runtime_error"
 "_ZTSSt9bad_alloc"
 "_ZTSSt9exception"
 "_ZTTN4Rcpp8RostreamILb0EEE"
 "_ZTTN4Rcpp8RostreamILb1EEE"
 "_ZTv0_n24_N4Rcpp8RostreamILb0EED0Ev"
 "_ZTv0_n24_N4Rcpp8RostreamILb0EED1Ev"
 "_ZTv0_n24_N4Rcpp8RostreamILb1EED0Ev"
 "_ZTv0_n24_N4Rcpp8RostreamILb1EED1Ev"
 "_ZTVN4Rcpp10RstreambufILb0EEE"
 "_ZTVN4Rcpp10RstreambufILb1EEE"
 "_ZTVN4Rcpp8RostreamILb0EEE"
 "_ZTVN4Rcpp8RostreamILb1EEE"
 "_ZZN4arma16arma_cerr_streamIcEERSoPSoE11cerr_stream"
 "_Z11obj_extractN4arma3ColIdEES1_Rj"
 "_ZGVN4arma5DatumIdE3nanE"
 "_ZGVN4arma5DatumIiE3nanE"
 "_ZN4arma3MatIdE9init_warmEjj"
 "_ZN4arma5DatumIdE3nanE"
 "_ZN4arma5DatumIiE3nanE"
 "_ZN4arma5fieldINS_3ColIdEEED1Ev"
 "_ZN4arma8arrayops10copy_smallIdEEvPT_PKS2_j"
 "_ZN4Rcpp10RstreambufILb0EE4syncEv"
 "_ZN4Rcpp10RstreambufILb0EE6xsputnEPKcx"
 "_ZN4Rcpp10RstreambufILb0EE8overflowEi"
 "_ZN4Rcpp10RstreambufILb0EED0Ev"
 "_ZN4Rcpp10RstreambufILb0EED1Ev"
 "_ZN4Rcpp10RstreambufILb1EE4syncEv"
 "_ZN4Rcpp10RstreambufILb1EE6xsputnEPKcx"
 "_ZN4Rcpp10RstreambufILb1EE8overflowEi"
 "_ZN4Rcpp10RstreambufILb1EED0Ev"
 "_ZN4Rcpp10RstreambufILb1EED1Ev"
 "_ZN4Rcpp8RostreamILb0EED0Ev"
 "_ZN4Rcpp8RostreamILb0EED1Ev"
 "_ZN4Rcpp8RostreamILb1EED0Ev"
 "_ZN4Rcpp8RostreamILb1EED1Ev"
 "_ZTCN4Rcpp8RostreamILb0EEE0_So"
 "_ZTCN4Rcpp8RostreamILb1EEE0_So"
 "_ZTIN4Rcpp10RstreambufILb0EEE"
 "_ZTIN4Rcpp10RstreambufILb1EEE"
 "_ZTIN4Rcpp8RostreamILb0EEE"
 "_ZTIN4Rcpp8RostreamILb1EEE"
 "_ZTISt11logic_error"
 "_ZTISt9bad_alloc"
 "_ZTISt9exception"
 "_ZTSN4Rcpp10RstreambufILb0EEE"
 "_ZTSN4Rcpp10RstreambufILb1EEE"
 "_ZTSN4Rcpp8RostreamILb0EEE"
 "_ZTSN4Rcpp8RostreamILb1EEE"
 "_ZTSSt11logic_error"
 "_ZTSSt9bad_alloc"
 "_ZTSSt9exception"
 "_ZTTN4Rcpp8RostreamILb0EEE"
 "_ZTTN4Rcpp8RostreamILb1EEE"
 "_ZTv0_n24_N4Rcpp8RostreamILb0EED0Ev"
 "_ZTv0_n24_N4Rcpp8RostreamILb0EED1Ev"
 "_ZTv0_n24_N4Rcpp8RostreamILb1EED0Ev"
 "_ZTv0_n24_N4Rcpp8RostreamILb1EED1Ev"
 "_ZTVN4Rcpp10RstreambufILb0EEE"
 "_ZTVN4Rcpp10RstreambufILb1EEE"
 "_ZTVN4Rcpp8RostreamILb0EEE"
 "_ZTVN4Rcpp8RostreamILb1EEE"
 "_ZZN4arma16arma_cerr_streamIcEERSoPSoE11cerr_stream"
 "_Z10Rcpp_OptimRKN4arma3ColIdEERKSt6vectorISsSaISsEERKNS_5fieldIS1_EESsRKNS_3MatIdEES3_S3_"
 "_Z13get_last_callv"
 "_Z14objFunStartingRKN4arma3ColIdEERKSt6vectorISsSaISsEERKNS_5fieldIS1_EESsS3_S3_"
 "_Z15Rcpp_OptimStartRKN4arma3ColIdEERKSt6vectorISsSaISsEERKNS_5fieldIS1_EESsS3_S3_"
 "_Z17getObjFunStartingRKN4arma3ColIdEERKSt6vectorISsSaISsEERKNS_5fieldIS1_EESsS3_S3_"
 "_Z19string_to_try_errorRKSs"
 "_Z31exception_to_condition_templateIN4Rcpp9exceptionEEP7SEXPRECRKT_b"
 "_Z31exception_to_condition_templateISt9exceptionEP7SEXPRECRKT_b"
 "_Z6objFunRKN4arma3ColIdEERKSt6vectorISsSaISsEERKNS_5fieldIS1_EESsRKNS_3MatIdEES3_S3_"
 "_Z9getObjFunRKN4arma3ColIdEERKSt6vectorISsSaISsEERKNS_5fieldIS1_EESsRKNS_3MatIdEES3_S3_"
 "_ZGVN4arma5DatumIdE3nanE"
 "_ZGVN4arma5DatumIiE3nanE"
 "_ZGVZ11stack_tracePKciE3fun"
 "_ZGVZ19char_get_string_eltP7SEXPRECxE3fun"
 "_ZGVZ20rcpp_get_stack_tracevE3fun"
 "_ZGVZ20rcpp_set_stack_traceP7SEXPRECE3fun"
 "_ZGVZ7dataptrP7SEXPRECE3fun"
 "_ZGVZ8demangleRKSsE3fun"
 "_ZGVZN4Rcpp12CppFunction6IdRKN4arma3ColIdEERKSt6vectorISsSaISsEERKNS1_5fieldIS3_EESsS5_S5_EclEPP7SEXPRECE8stop_sym"
 "_ZGVZN4Rcpp12CppFunction7IdRKN4arma3ColIdEERKSt6vectorISsSaISsEERKNS1_5fieldIS3_EESsRKNS1_3MatIdEES5_S5_EclEPP7SEXPRECE8stop_sym"
 "_ZGVZN4Rcpp8internal18get_Rcpp_namespaceEvE3fun"
 "_ZN10tinyformat6detail10formatImplERSoPKcPKNS0_9FormatArgEi"
 "_ZN10tinyformat6detail15formatTruncatedIiEEvRSoRKT_i"
 "_ZN10tinyformat6detail21streamStateFromFormatERSoRbRiPKcPKNS0_9FormatArgES3_i"
 "_ZN10tinyformat6detail9FormatArg10formatImplIiEEvRSoPKcS5_iPKv"
 "_ZN10tinyformat6detail9FormatArg10formatImplIPKcEEvRSoS4_S4_iPKv"
 "_ZN10tinyformat6detail9FormatArg9toIntImplIiEEiPKv"
 "_ZN10tinyformat6detail9FormatArg9toIntImplIPKcEEiPKv"
 "_ZN10tinyformat6formatIIEEESsPKcDpRKT_"
 "_ZN10tinyformat6formatIIPKcEEESsS2_DpRKT_"
 "_ZN10tinyformat6formatIIPKciEEESsS2_DpRKT_"
 "_ZN10tinyformat6formatIIPKcS2_EEESsS2_DpRKT_"
 "_ZN4arma10glue_times5applyIdLb1ELb0ELb0ELb0ENS_3ColIdEENS_3MatIdEES3_EEvRNS4_IT_EERKT4_RKT5_RKT6_S6_"
 "_ZN4arma16gemv_emul_tinysqILb0ELb0ELb0EE5applyIdNS_3MatIdEEEEvPT_RKT0_PKS5_S5_S5_"
 "_ZN4arma16gemv_emul_tinysqILb1ELb0ELb0EE5applyIdNS_3ColIdEEEEvPT_RKT0_PKS5_S5_S5_"
 "_ZN4arma16gemv_emul_tinysqILb1ELb0ELb0EE5applyIdNS_3MatIdEEEEvPT_RKT0_PKS5_S5_S5_"
 "_ZN4arma3MatIdE5resetEv"
 "_ZN4arma3MatIdE9init_coldEv"
 "_ZN4arma3MatIdE9init_warmEjj"
 "_ZN4arma3MatIdED1Ev"
 "_ZN4arma3MatIdED2Ev"
 "_ZN4arma5DatumIdE3nanE"
 "_ZN4arma5DatumIiE3nanE"
 "_ZN4arma5fieldINS_3ColIdEEED1Ev"
 "_ZN4arma8arrayops10copy_smallIdEEvPT_PKS2_j"
 "_ZN4arma8arrayops17inplace_set_smallIdEEvPT_S2_j"
 "_ZN4Rcpp10eval_errorD0Ev"
 "_ZN4Rcpp10eval_errorD1Ev"
 "_ZN4Rcpp10RstreambufILb0EE4syncEv"
 "_ZN4Rcpp10RstreambufILb0EE6xsputnEPKcx"
 "_ZN4Rcpp10RstreambufILb0EE8overflowEi"
 "_ZN4Rcpp10RstreambufILb0EED0Ev"
 "_ZN4Rcpp10RstreambufILb0EED1Ev"
 "_ZN4Rcpp10RstreambufILb1EE4syncEv"
 "_ZN4Rcpp10RstreambufILb1EE6xsputnEPKcx"
 "_ZN4Rcpp10RstreambufILb1EE8overflowEi"
 "_ZN4Rcpp10RstreambufILb1EED0Ev"
 "_ZN4Rcpp10RstreambufILb1EED1Ev"
 "_ZN4Rcpp11CppFunction11get_formalsEv"
 "_ZN4Rcpp11CppFunction5nargsEv"
 "_ZN4Rcpp11CppFunction7is_voidEv"
 "_ZN4Rcpp11CppFunction9signatureERSsPKc"
 "_ZN4Rcpp12CppFunction6IdRKN4arma3ColIdEERKSt6vectorISsSaISsEERKNS1_5fieldIS3_EESsS5_S5_E16get_function_ptrEv"
 "_ZN4Rcpp12CppFunction6IdRKN4arma3ColIdEERKSt6vectorISsSaISsEERKNS1_5fieldIS3_EESsS5_S5_E5nargsEv"
 "_ZN4Rcpp12CppFunction6IdRKN4arma3ColIdEERKSt6vectorISsSaISsEERKNS1_5fieldIS3_EESsS5_S5_E9signatureERSsPKc"
 "_ZN4Rcpp12CppFunction6IdRKN4arma3ColIdEERKSt6vectorISsSaISsEERKNS1_5fieldIS3_EESsS5_S5_EclEPP7SEXPREC"
 "_ZN4Rcpp12CppFunction6IdRKN4arma3ColIdEERKSt6vectorISsSaISsEERKNS1_5fieldIS3_EESsS5_S5_ED0Ev"
 "_ZN4Rcpp12CppFunction6IdRKN4arma3ColIdEERKSt6vectorISsSaISsEERKNS1_5fieldIS3_EESsS5_S5_ED1Ev"
 "_ZN4Rcpp12CppFunction7IdRKN4arma3ColIdEERKSt6vectorISsSaISsEERKNS1_5fieldIS3_EESsRKNS1_3MatIdEES5_S5_E16get_function_ptrEv"
 "_ZN4Rcpp12CppFunction7IdRKN4arma3ColIdEERKSt6vectorISsSaISsEERKNS1_5fieldIS3_EESsRKNS1_3MatIdEES5_S5_E5nargsEv"
 "_ZN4Rcpp12CppFunction7IdRKN4arma3ColIdEERKSt6vectorISsSaISsEERKNS1_5fieldIS3_EESsRKNS1_3MatIdEES5_S5_E9signatureERSsPKc"
 "_ZN4Rcpp12CppFunction7IdRKN4arma3ColIdEERKSt6vectorISsSaISsEERKNS1_5fieldIS3_EESsRKNS1_3MatIdEES5_S5_EclEPP7SEXPREC"
 "_ZN4Rcpp12CppFunction7IdRKN4arma3ColIdEERKSt6vectorISsSaISsEERKNS1_5fieldIS3_EESsRKNS1_3MatIdEES5_S5_ED0Ev"
 "_ZN4Rcpp12CppFunction7IdRKN4arma3ColIdEERKSt6vectorISsSaISsEERKNS1_5fieldIS3_EESsRKNS1_3MatIdEES5_S5_ED1Ev"
 "_ZN4Rcpp12not_a_matrixD0Ev"
 "_ZN4Rcpp12not_a_matrixD1Ev"
 "_ZN4Rcpp13RcppArmadillo9arma_wrapIN4arma3ColIdEEEEP7SEXPRECRKT_RKNS_9DimensionE"
 "_ZN4Rcpp13RcppArmadillo9arma_wrapIN4arma3MatIdEEEEP7SEXPRECRKT_RKNS_9DimensionE"
 "_ZN4Rcpp14not_compatibleC1IIPKcEEES3_DpOT_"
 "_ZN4Rcpp14not_compatibleC1IIPKciEEES3_DpOT_"
 "_ZN4Rcpp14not_compatibleD0Ev"
 "_ZN4Rcpp14not_compatibleD1Ev"
 "_ZN4Rcpp15CppFunctionBaseclEPP7SEXPREC"
 "_ZN4Rcpp15CppFunctionBaseD0Ev"
 "_ZN4Rcpp15CppFunctionBaseD1Ev"
 "_ZN4Rcpp16Environment_ImplINS_15PreserveStorageEEC1ERKSs"
 "_ZN4Rcpp17finalizer_wrapperINS_12CppFunction6IdRKN4arma3ColIdEERKSt6vectorISsSaISsEERKNS2_5fieldIS4_EESsS6_S6_EEXadL_ZNS_25standard_delete_finalizerISG_EEvPT_EEEEvP7SEXPREC"
 "_ZN4Rcpp17finalizer_wrapperINS_12CppFunction7IdRKN4arma3ColIdEERKSt6vectorISsSaISsEERKNS2_5fieldIS4_EESsRKNS2_3MatIdEES6_S6_EEXadL_ZNS_25standard_delete_finalizerISK_EEvPT_EEEEvP7SEXPREC"
 "_ZN4Rcpp20AttributeProxyPolicyINS_12RObject_ImplINS_15PreserveStorageEEEE14AttributeProxyaSINS_9DimensionEEERS5_RKT_"
 "_ZN4Rcpp21InternalFunction_ImplINS_15PreserveStorageEE3setEP7SEXPREC"
 "_ZN4Rcpp22ArmaVec_InputParameterIdN4arma3ColIdEERKS3_NS_6traits17integral_constantIbLb0EEEEC2EP7SEXPREC"
 "_ZN4Rcpp22ArmaVec_InputParameterIdN4arma3ColIdEERKS3_NS_6traits17integral_constantIbLb0EEEED2Ev"
 "_ZN4Rcpp24get_return_type_dispatchIRKN4arma3ColIdEEEESsNS_6traits17integral_constantIbLb0EEE"
 "_ZN4Rcpp4growINS_6traits12named_objectIA3_cEEEEP7SEXPRECRKT_S6_"
 "_ZN4Rcpp4growINS_6traits12named_objectIN4arma3ColIdEEEEEEP7SEXPRECRKT_S8_"
 "_ZN4Rcpp4growINS_6traits12named_objectIN4arma5fieldINS3_3ColIdEEEEEEEEP7SEXPRECRKT_SA_"
 "_ZN4Rcpp4growINS_6traits12named_objectINS_21InternalFunction_ImplINS_15PreserveStorageEEEEEEEP7SEXPRECRKT_S8_"
 "_ZN4Rcpp4growINS_6traits12named_objectISsEEEEP7SEXPRECRKT_S5_"
 "_ZN4Rcpp4growINS_6traits12named_objectISt6vectorISsSaISsEEEEEEP7SEXPRECRKT_S8_"
 "_ZN4Rcpp4stopERKSs"
 "_ZN4Rcpp4stopIIEEEvPKcDpOT_"
 "_ZN4Rcpp4wrapIdEEP7SEXPRECRKN4arma3ColIT_EE"
 "_ZN4Rcpp4wrapIN4arma3ColIdEEEEP7SEXPRECRKNS1_5fieldIT_EE"
 "_ZN4Rcpp6r_castILi14EEEP7SEXPRECS2_"
 "_ZN4Rcpp6VectorILi19ENS_15PreserveStorageEEC1EP7SEXPREC"
 "_ZN4Rcpp8internal10basic_castILi14EEEP7SEXPRECS3_"
 "_ZN4Rcpp8internal10resumeJumpEP7SEXPREC"
 "_ZN4Rcpp8internal21export_indexing__implIN4arma3ColIdEEdEEvP7SEXPRECRT_NS_6traits17integral_constantIbLb0EEE"
 "_ZN4Rcpp8internal22export_range__dispatchIN9__gnu_cxx17__normal_iteratorIPSsSt6vectorISsSaISsEEEESsEEvP7SEXPRECT_NS_6traits17r_type_string_tagE"
 "_ZN4Rcpp8internal3nthEP7SEXPRECi"
 "_ZN4Rcpp8pairlistINS_6traits12named_objectIN4arma3ColIdEEEENS2_INS_21InternalFunction_ImplINS_15PreserveStorageEEEEENS2_IA3_cEENS2_ISt6vectorISsSaISsEEEENS2_INS3_5fieldIS5_EEEENS2_ISsEENS2_INS3_3MatIdEEEES6_S6_EEP7SEXPRECRKT_RKT0_RKT1_RKT2_RKT3_RKT4_RKT5_RKT6_RKT7_"
 "_ZN4Rcpp8RostreamILb0EED0Ev"
 "_ZN4Rcpp8RostreamILb0EED1Ev"
 "_ZN4Rcpp8RostreamILb1EED0Ev"
 "_ZN4Rcpp8RostreamILb1EED1Ev"
 "_ZN4Rcpp9exceptionC1EPKcb"
 "_ZN4Rcpp9exceptionD0Ev"
 "_ZN4Rcpp9exceptionD1Ev"
 "_ZN4Rcpp9Rcpp_evalEP7SEXPRECS1_"
 "_ZN4Rcpp9signatureIdRKN4arma3ColIdEERKSt6vectorISsSaISsEERKNS1_5fieldIS3_EESsRKNS1_3MatIdEES5_S5_EEvRSsPKc"
 "_ZN4Rcpp9signatureIdRKN4arma3ColIdEERKSt6vectorISsSaISsEERKNS1_5fieldIS3_EESsS5_S5_EEvRSsPKc"
 "_ZNK10tinyformat6detail9FormatArg5toIntEv"
 "_ZNK4Rcpp10eval_error4whatEv"
 "_ZNK4Rcpp12not_a_matrix4whatEv"
 "_ZNK4Rcpp13BindingPolicyINS_16Environment_ImplINS_15PreserveStorageEEEE7BindingcvT_INS_13Function_ImplIS2_EEEEv"
 "_ZNK4Rcpp14not_compatible4whatEv"
 "_ZNK4Rcpp9exception4whatEv"
 "_ZNKSt5ctypeIcE8do_widenEc"
 "_ZNSt15basic_stringbufIcSt11char_traitsIcESaIcEED1Ev"
 "_ZNSt6vectorISsSaISsEED1Ev"
 "_ZTCN4Rcpp8RostreamILb0EEE0_So"
 "_ZTCN4Rcpp8RostreamILb1EEE0_So"
 "_ZTIN4Rcpp10eval_errorE"
 "_ZTIN4Rcpp10RstreambufILb0EEE"
 "_ZTIN4Rcpp10RstreambufILb1EEE"
 "_ZTIN4Rcpp11CppFunctionE"
 "_ZTIN4Rcpp12CppFunction6IdRKN4arma3ColIdEERKSt6vectorISsSaISsEERKNS1_5fieldIS3_EESsS5_S5_EE"
 "_ZTIN4Rcpp12CppFunction7IdRKN4arma3ColIdEERKSt6vectorISsSaISsEERKNS1_5fieldIS3_EESsRKNS1_3MatIdEES5_S5_EE"
 "_ZTIN4Rcpp12not_a_matrixE"
 "_ZTIN4Rcpp14not_compatibleE"
 "_ZTIN4Rcpp15CppFunctionBaseE"
 "_ZTIN4Rcpp17LongjumpExceptionE"
 "_ZTIN4Rcpp8internal20InterruptedExceptionE"
 "_ZTIN4Rcpp8RostreamILb0EEE"
 "_ZTIN4Rcpp8RostreamILb1EEE"
 "_ZTIN4Rcpp9exceptionE"
 "_ZTISt11logic_error"
 "_ZTISt13runtime_error"
 "_ZTISt9bad_alloc"
 "_ZTISt9exception"
 "_ZTSN4arma3ColIdEE"
 "_ZTSN4arma3MatIdEE"
 "_ZTSN4arma5fieldINS_3ColIdEEEE"
 "_ZTSN4Rcpp10eval_errorE"
 "_ZTSN4Rcpp10RstreambufILb0EEE"
 "_ZTSN4Rcpp10RstreambufILb1EEE"
 "_ZTSN4Rcpp11CppFunctionE"
 "_ZTSN4Rcpp12CppFunction6IdRKN4arma3ColIdEERKSt6vectorISsSaISsEERKNS1_5fieldIS3_EESsS5_S5_EE"
 "_ZTSN4Rcpp12CppFunction7IdRKN4arma3ColIdEERKSt6vectorISsSaISsEERKNS1_5fieldIS3_EESsRKNS1_3MatIdEES5_S5_EE"
 "_ZTSN4Rcpp12not_a_matrixE"
 "_ZTSN4Rcpp14not_compatibleE"
 "_ZTSN4Rcpp15CppFunctionBaseE"
 "_ZTSN4Rcpp17LongjumpExceptionE"
 "_ZTSN4Rcpp8internal20InterruptedExceptionE"
 "_ZTSN4Rcpp8RostreamILb0EEE"
 "_ZTSN4Rcpp8RostreamILb1EEE"
 "_ZTSN4Rcpp9exceptionE"
 "_ZTSSs"
 "_ZTSSt11logic_error"
 "_ZTSSt13runtime_error"
 "_ZTSSt6vectorISsSaISsEE"
 "_ZTSSt9bad_alloc"
 "_ZTSSt9exception"
 "_ZTTN4Rcpp8RostreamILb0EEE"
 "_ZTTN4Rcpp8RostreamILb1EEE"
 "_ZTv0_n24_N4Rcpp8RostreamILb0EED0Ev"
 "_ZTv0_n24_N4Rcpp8RostreamILb0EED1Ev"
 "_ZTv0_n24_N4Rcpp8RostreamILb1EED0Ev"
 "_ZTv0_n24_N4Rcpp8RostreamILb1EED1Ev"
 "_ZTVN4Rcpp10eval_errorE"
 "_ZTVN4Rcpp10RstreambufILb0EEE"
 "_ZTVN4Rcpp10RstreambufILb1EEE"
 "_ZTVN4Rcpp11CppFunctionE"
 "_ZTVN4Rcpp12CppFunction6IdRKN4arma3ColIdEERKSt6vectorISsSaISsEERKNS1_5fieldIS3_EESsS5_S5_EE"
 "_ZTVN4Rcpp12CppFunction7IdRKN4arma3ColIdEERKSt6vectorISsSaISsEERKNS1_5fieldIS3_EESsRKNS1_3MatIdEES5_S5_EE"
 "_ZTVN4Rcpp12not_a_matrixE"
 "_ZTVN4Rcpp14not_compatibleE"
 "_ZTVN4Rcpp8RostreamILb0EEE"
 "_ZTVN4Rcpp8RostreamILb1EEE"
 "_ZTVN4Rcpp9exceptionE"
 "_ZZ11stack_tracePKciE3fun"
 "_ZZ19char_get_string_eltP7SEXPRECxE3fun"
 "_ZZ20rcpp_get_stack_tracevE3fun"
 "_ZZ20rcpp_set_stack_traceP7SEXPRECE3fun"
 "_ZZ7dataptrP7SEXPRECE3fun"
 "_ZZ8demangleRKSsE3fun"
 "_ZZN4arma16arma_cerr_streamIcEERSoPSoE11cerr_stream"
 "_ZZN4Rcpp12CppFunction6IdRKN4arma3ColIdEERKSt6vectorISsSaISsEERKNS1_5fieldIS3_EESsS5_S5_EclEPP7SEXPRECE8stop_sym"
 "_ZZN4Rcpp12CppFunction7IdRKN4arma3ColIdEERKSt6vectorISsSaISsEERKNS1_5fieldIS3_EESsRKNS1_3MatIdEES5_S5_EclEPP7SEXPRECE8stop_sym"
 "_ZZN4Rcpp8internal18get_Rcpp_namespaceEvE3fun"
 "_Z10cdivid_cppddddRdS_"
 "_Z10fxshft_cppiRdS_"
 "_Z10myfmod_cppdd"
 "_Z10noshft_cppi"
 "_Z10polyev_cppiddRSt6vectorIdSaIdEES2_S2_S2_RdS3_"
 "_Z10vrshft_cppiRdS_"
 "_Z12polyroot_cppRKSt6vectorIdSaIdEES3_RiRS1_S5_Rb"
 "_Z12R_pow_di_cppdi"
 "_Z15cpoly_scale_cppiRSt6vectorIdSaIdEEdddd"
 "_Z15do_polyroot_cppRKSt6vectorISt7complexIdESaIS1_EE"
 "_Z16cpoly_cauchy_cppiRSt6vectorIdSaIdEES2_"
 "_Z16do_polyroot_armaRKN4arma3ColISt7complexIdEEE"
 "_Z9calct_cppRb"
 "_Z9errev_cppiRKSt6vectorIdSaIdEERS1_dddd"
 "_Z9nexth_cppb"
 "_Z9R_pow_cppdd"
 "_ZGVN4arma5DatumIdE3nanE"
 "_ZGVN4arma5DatumIiE3nanE"
 "_ZN4arma3MatISt7complexIdEE9init_warmEjj"
 "_ZN4arma3MatISt7complexIdEED2Ev"
 "_ZN4arma5DatumIdE3nanE"
 "_ZN4arma5DatumIiE3nanE"
 "_ZN4Rcpp10RstreambufILb0EE4syncEv"
 "_ZN4Rcpp10RstreambufILb0EE6xsputnEPKcx"
 "_ZN4Rcpp10RstreambufILb0EE8overflowEi"
 "_ZN4Rcpp10RstreambufILb0EED0Ev"
 "_ZN4Rcpp10RstreambufILb0EED1Ev"
 "_ZN4Rcpp10RstreambufILb1EE4syncEv"
 "_ZN4Rcpp10RstreambufILb1EE6xsputnEPKcx"
 "_ZN4Rcpp10RstreambufILb1EE8overflowEi"
 "_ZN4Rcpp10RstreambufILb1EED0Ev"
 "_ZN4Rcpp10RstreambufILb1EED1Ev"
 "_ZN4Rcpp8RostreamILb0EED0Ev"
 "_ZN4Rcpp8RostreamILb0EED1Ev"
 "_ZN4Rcpp8RostreamILb1EED0Ev"
 "_ZN4Rcpp8RostreamILb1EED1Ev"
 "_ZNSt6vectorIdSaIdEEaSERKS1_"
 "_ZTCN4Rcpp8RostreamILb0EEE0_So"
 "_ZTCN4Rcpp8RostreamILb1EEE0_So"
 "_ZTIN4Rcpp10RstreambufILb0EEE"
 "_ZTIN4Rcpp10RstreambufILb1EEE"
 "_ZTIN4Rcpp8RostreamILb0EEE"
 "_ZTIN4Rcpp8RostreamILb1EEE"
 "_ZTISt11logic_error"
 "_ZTISt13runtime_error"
 "_ZTISt16invalid_argument"
 "_ZTISt9bad_alloc"
 "_ZTISt9exception"
 "_ZTSN4Rcpp10RstreambufILb0EEE"
 "_ZTSN4Rcpp10RstreambufILb1EEE"
 "_ZTSN4Rcpp8RostreamILb0EEE"
 "_ZTSN4Rcpp8RostreamILb1EEE"
 "_ZTSSt11logic_error"
 "_ZTSSt13runtime_error"
 "_ZTSSt16invalid_argument"
 "_ZTSSt9bad_alloc"
 "_ZTSSt9exception"
 "_ZTTN4Rcpp8RostreamILb0EEE"
 "_ZTTN4Rcpp8RostreamILb1EEE"
 "_ZTv0_n24_N4Rcpp8RostreamILb0EED0Ev"
 "_ZTv0_n24_N4Rcpp8RostreamILb0EED1Ev"
 "_ZTv0_n24_N4Rcpp8RostreamILb1EED0Ev"
 "_ZTv0_n24_N4Rcpp8RostreamILb1EED1Ev"
 "_ZTVN4Rcpp10RstreambufILb0EEE"
 "_ZTVN4Rcpp10RstreambufILb1EEE"
 "_ZTVN4Rcpp8RostreamILb0EEE"
 "_ZTVN4Rcpp8RostreamILb1EEE"
 "_ZZN4arma16arma_cerr_streamIcEERSoPSoE11cerr_stream"
 "_Z10arma_to_wvN4arma3ColIdEES1_dS1_"
 "_Z12arma11_to_wvdddRKN4arma3ColIdEE"
 "_Z14arma_to_wv_appN4arma3ColIdEES1_dS1_d"
 "_Z14theoretical_wvRKN4arma3ColIdEERKSt6vectorISsSaISsEERKNS_5fieldIS1_EES3_"
 "_Z17decomp_to_theo_wvRKN4arma3MatIdEE"
 "_Z21decomp_theoretical_wvRKN4arma3ColIdEERKSt6vectorISsSaISsEERKNS_5fieldIS1_EES3_"
 "_Z7acf_sumN4arma3ColIdEES1_jd"
 "_Z8dr_to_wvdRKN4arma3ColIdEE"
 "_Z8qn_to_wvdRKN4arma3ColIdEE"
 "_Z8rw_to_wvdRKN4arma3ColIdEE"
 "_Z8wn_to_wvdN4arma3ColIdEE"
 "_Z9ar1_to_wvddRKN4arma3ColIdEE"
 "_Z9ma1_to_wvddRKN4arma3ColIdEE"
 "_ZGVN4arma5DatumIdE3nanE"
 "_ZGVN4arma5DatumIiE3nanE"
 "_ZGVN4arma5DatumIjE3nanE"
 "_ZN4arma3ColIdEC1ERKS1_"
 "_ZN4arma3MatIdE5resetEv"
 "_ZN4arma3MatIdE9init_warmEjj"
 "_ZN4arma3MatIdEaSERKS1_"
 "_ZN4arma3MatIdED1Ev"
 "_ZN4arma3MatIdED2Ev"
 "_ZN4arma3MatIdEpLERKS1_"
 "_ZN4arma3MatIjE5resetEv"
 "_ZN4arma3MatIjE9init_warmEjj"
 "_ZN4arma3MatIjED1Ev"
 "_ZN4arma5DatumIdE3nanE"
 "_ZN4arma5DatumIiE3nanE"
 "_ZN4arma5DatumIjE3nanE"
 "_ZN4arma5fieldINS_3ColIdEEED1Ev"
 "_ZN4arma7subviewIdE10inplace_opINS_15op_internal_equENS_3MatIdEEEEvRKNS_4BaseIdT0_EEPKc"
 "_ZN4arma7subviewIdE7extractERNS_3MatIdEERKS1_"
 "_ZN4arma8arrayops10copy_smallIdEEvPT_PKS2_j"
 "_ZN4arma8arrayops10copy_smallIjEEvPT_PKS2_j"
 "_ZN4arma8arrayops17inplace_set_smallIdEEvPT_S2_j"
 "_ZN4arma8eop_coreINS_19eop_scalar_div_postEE5applyINS_3MatIdEENS_3eOpINS_5eGlueINS7_INS7_INS7_INS6_INS6_INS_3ColIdEES1_EENS_21eop_scalar_minus_postEEENS6_ISA_NS_16eop_scalar_timesEEENS_11eglue_minusEEES9_NS_10eglue_plusEEES9_SF_EENS6_INS6_INS6_ISA_NS_10eop_squareEEESD_EESD_EENS_9eglue_divEEESD_EEEEvRT_RKNS6_IT0_S1_EE"
 "_ZN4Rcpp10RstreambufILb0EE4syncEv"
 "_ZN4Rcpp10RstreambufILb0EE6xsputnEPKcx"
 "_ZN4Rcpp10RstreambufILb0EE8overflowEi"
 "_ZN4Rcpp10RstreambufILb0EED0Ev"
 "_ZN4Rcpp10RstreambufILb0EED1Ev"
 "_ZN4Rcpp10RstreambufILb1EE4syncEv"
 "_ZN4Rcpp10RstreambufILb1EE6xsputnEPKcx"
 "_ZN4Rcpp10RstreambufILb1EE8overflowEi"
 "_ZN4Rcpp10RstreambufILb1EED0Ev"
 "_ZN4Rcpp10RstreambufILb1EED1Ev"
 "_ZN4Rcpp8RostreamILb0EED0Ev"
 "_ZN4Rcpp8RostreamILb0EED1Ev"
 "_ZN4Rcpp8RostreamILb1EED0Ev"
 "_ZN4Rcpp8RostreamILb1EED1Ev"
 "_ZSt13__adjust_heapIPdxdN9__gnu_cxx5__ops15_Iter_comp_iterIN4arma18arma_gt_comparatorIdEEEEEvT_T0_S9_T1_T2_"
 "_ZSt13__adjust_heapIPdxdN9__gnu_cxx5__ops15_Iter_comp_iterIN4arma18arma_lt_comparatorIdEEEEEvT_T0_S9_T1_T2_"
 "_ZSt16__introsort_loopIPdxN9__gnu_cxx5__ops15_Iter_comp_iterIN4arma18arma_gt_comparatorIdEEEEEvT_S8_T0_T1_"
 "_ZSt16__introsort_loopIPdxN9__gnu_cxx5__ops15_Iter_comp_iterIN4arma18arma_lt_comparatorIdEEEEEvT_S8_T0_T1_"
 "_ZTCN4Rcpp8RostreamILb0EEE0_So"
 "_ZTCN4Rcpp8RostreamILb1EEE0_So"
 "_ZTIN4Rcpp10RstreambufILb0EEE"
 "_ZTIN4Rcpp10RstreambufILb1EEE"
 "_ZTIN4Rcpp8RostreamILb0EEE"
 "_ZTIN4Rcpp8RostreamILb1EEE"
 "_ZTISt11logic_error"
 "_ZTISt9bad_alloc"
 "_ZTISt9exception"
 "_ZTSN4Rcpp10RstreambufILb0EEE"
 "_ZTSN4Rcpp10RstreambufILb1EEE"
 "_ZTSN4Rcpp8RostreamILb0EEE"
 "_ZTSN4Rcpp8RostreamILb1EEE"
 "_ZTSSt11logic_error"
 "_ZTSSt9bad_alloc"
 "_ZTSSt9exception"
 "_ZTTN4Rcpp8RostreamILb0EEE"
 "_ZTTN4Rcpp8RostreamILb1EEE"
 "_ZTv0_n24_N4Rcpp8RostreamILb0EED0Ev"
 "_ZTv0_n24_N4Rcpp8RostreamILb0EED1Ev"
 "_ZTv0_n24_N4Rcpp8RostreamILb1EED0Ev"
 "_ZTv0_n24_N4Rcpp8RostreamILb1EED1Ev"
 "_ZTVN4Rcpp10RstreambufILb0EEE"
 "_ZTVN4Rcpp10RstreambufILb1EEE"
 "_ZTVN4Rcpp8RostreamILb0EEE"
 "_ZTVN4Rcpp8RostreamILb1EEE"
 "_ZZN4arma16arma_cerr_streamIcEERSoPSoE11cerr_stream"
 "_Z12get_imu_infoSs"
 "_Z8read_imuSsSs"
 "_ZGVN4arma5DatumIdE3nanE"
 "_ZGVN4arma5DatumIiE3nanE"
 "_ZN4arma3MatIdE9init_warmEjj"
 "_ZN4arma3MatIdED1Ev"
 "_ZN4arma3MatIdED2Ev"
 "_ZN4arma5DatumIdE3nanE"
 "_ZN4arma5DatumIiE3nanE"
 "_ZN4arma5fieldINS_3MatIdEEED1Ev"
 "_ZN4arma8arrayops10copy_smallIdEEvPT_PKS2_j"
 "_ZN4Rcpp10RstreambufILb0EE4syncEv"
 "_ZN4Rcpp10RstreambufILb0EE6xsputnEPKcx"
 "_ZN4Rcpp10RstreambufILb0EE8overflowEi"
 "_ZN4Rcpp10RstreambufILb0EED0Ev"
 "_ZN4Rcpp10RstreambufILb0EED1Ev"
 "_ZN4Rcpp10RstreambufILb1EE4syncEv"
 "_ZN4Rcpp10RstreambufILb1EE6xsputnEPKcx"
 "_ZN4Rcpp10RstreambufILb1EE8overflowEi"
 "_ZN4Rcpp10RstreambufILb1EED0Ev"
 "_ZN4Rcpp10RstreambufILb1EED1Ev"
 "_ZN4Rcpp8RostreamILb0EED0Ev"
 "_ZN4Rcpp8RostreamILb0EED1Ev"
 "_ZN4Rcpp8RostreamILb1EED0Ev"
 "_ZN4Rcpp8RostreamILb1EED1Ev"
 "_ZNKSt5ctypeIcE8do_widenEc"
 "_ZStplIcSt11char_traitsIcESaIcEESbIT_T0_T1_EOS6_PKS3_"
 "_ZStplIcSt11char_traitsIcESaIcEESbIT_T0_T1_EPKS3_RKS6_"
 "_ZTCN4Rcpp8RostreamILb0EEE0_So"
 "_ZTCN4Rcpp8RostreamILb1EEE0_So"
 "_ZTIN4Rcpp10RstreambufILb0EEE"
 "_ZTIN4Rcpp10RstreambufILb1EEE"
 "_ZTIN4Rcpp8RostreamILb0EEE"
 "_ZTIN4Rcpp8RostreamILb1EEE"
 "_ZTISt11logic_error"
 "_ZTISt13runtime_error"
 "_ZTISt9bad_alloc"
 "_ZTISt9exception"
 "_ZTSN4Rcpp10RstreambufILb0EEE"
 "_ZTSN4Rcpp10RstreambufILb1EEE"
 "_ZTSN4Rcpp8RostreamILb0EEE"
 "_ZTSN4Rcpp8RostreamILb1EEE"
 "_ZTSSt11logic_error"
 "_ZTSSt13runtime_error"
 "_ZTSSt9bad_alloc"
 "_ZTSSt9exception"
 "_ZTTN4Rcpp8RostreamILb0EEE"
 "_ZTTN4Rcpp8RostreamILb1EEE"
 "_ZTv0_n24_N4Rcpp8RostreamILb0EED0Ev"
 "_ZTv0_n24_N4Rcpp8RostreamILb0EED1Ev"
 "_ZTv0_n24_N4Rcpp8RostreamILb1EED0Ev"
 "_ZTv0_n24_N4Rcpp8RostreamILb1EED1Ev"
 "_ZTVN4Rcpp10RstreambufILb0EEE"
 "_ZTVN4Rcpp10RstreambufILb1EEE"
 "_ZTVN4Rcpp8RostreamILb0EEE"
 "_ZTVN4Rcpp8RostreamILb1EEE"
 "_ZZN4arma16arma_cerr_streamIcEERSoPSoE11cerr_stream"
 "_Z10sig_rob_bwN4arma3ColIdEEd"
 "_Z16objFun_find_biwcdd"
 "_Z17objFun_sig_rob_bwdN4arma3ColIdEEdd"
 "_Z19string_to_try_errorRKSs"
 "_Z31exception_to_condition_templateIN4Rcpp9exceptionEEP7SEXPRECRKT_b"
 "_Z31exception_to_condition_templateISt9exceptionEP7SEXPRECRKT_b"
 "_Z9find_biwcd"
 "_ZGVN4arma5DatumIdE3nanE"
 "_ZGVN4arma5DatumIiE3nanE"
 "_ZGVZ11stack_tracePKciE3fun"
 "_ZGVZ20rcpp_get_stack_tracevE3fun"
 "_ZGVZ20rcpp_set_stack_traceP7SEXPRECE3fun"
 "_ZGVZ7dataptrP7SEXPRECE3fun"
 "_ZGVZ8demangleRKSsE3fun"
 "_ZGVZN4Rcpp12CppFunction2IdddEclEPP7SEXPRECE8stop_sym"
 "_ZGVZN4Rcpp12CppFunction4IddN4arma3ColIdEEddEclEPP7SEXPRECE8stop_sym"
 "_ZGVZN4Rcpp8internal18get_Rcpp_namespaceEvE3fun"
 "_ZN10tinyformat6detail10formatImplERSoPKcPKNS0_9FormatArgEi"
 "_ZN10tinyformat6detail15formatTruncatedIiEEvRSoRKT_i"
 "_ZN10tinyformat6detail21streamStateFromFormatERSoRbRiPKcPKNS0_9FormatArgES3_i"
 "_ZN10tinyformat6detail9FormatArg10formatImplIiEEvRSoPKcS5_iPKv"
 "_ZN10tinyformat6detail9FormatArg10formatImplIPKcEEvRSoS4_S4_iPKv"
 "_ZN10tinyformat6detail9FormatArg9toIntImplIiEEiPKv"
 "_ZN10tinyformat6detail9FormatArg9toIntImplIPKcEEiPKv"
 "_ZN10tinyformat6formatIIEEESsPKcDpRKT_"
 "_ZN10tinyformat6formatIIiEEESsPKcDpRKT_"
 "_ZN10tinyformat6formatIIPKcEEESsS2_DpRKT_"
 "_ZN10tinyformat6formatIIPKcS2_EEESsS2_DpRKT_"
 "_ZN4arma3MatIdED2Ev"
 "_ZN4arma3MatIjED2Ev"
 "_ZN4arma5DatumIdE3nanE"
 "_ZN4arma5DatumIiE3nanE"
 "_ZN4Rcpp10eval_errorD0Ev"
 "_ZN4Rcpp10eval_errorD1Ev"
 "_ZN4Rcpp10RstreambufILb0EE4syncEv"
 "_ZN4Rcpp10RstreambufILb0EE6xsputnEPKcx"
 "_ZN4Rcpp10RstreambufILb0EE8overflowEi"
 "_ZN4Rcpp10RstreambufILb0EED0Ev"
 "_ZN4Rcpp10RstreambufILb0EED1Ev"
 "_ZN4Rcpp10RstreambufILb1EE4syncEv"
 "_ZN4Rcpp10RstreambufILb1EE6xsputnEPKcx"
 "_ZN4Rcpp10RstreambufILb1EE8overflowEi"
 "_ZN4Rcpp10RstreambufILb1EED0Ev"
 "_ZN4Rcpp10RstreambufILb1EED1Ev"
 "_ZN4Rcpp11CppFunction11get_formalsEv"
 "_ZN4Rcpp11CppFunction5nargsEv"
 "_ZN4Rcpp11CppFunction7is_voidEv"
 "_ZN4Rcpp11CppFunction9signatureERSsPKc"
 "_ZN4Rcpp12CppFunction2IdddE16get_function_ptrEv"
 "_ZN4Rcpp12CppFunction2IdddE5nargsEv"
 "_ZN4Rcpp12CppFunction2IdddE9signatureERSsPKc"
 "_ZN4Rcpp12CppFunction2IdddEclEPP7SEXPREC"
 "_ZN4Rcpp12CppFunction2IdddED0Ev"
 "_ZN4Rcpp12CppFunction2IdddED1Ev"
 "_ZN4Rcpp12CppFunction4IddN4arma3ColIdEEddE16get_function_ptrEv"
 "_ZN4Rcpp12CppFunction4IddN4arma3ColIdEEddE5nargsEv"
 "_ZN4Rcpp12CppFunction4IddN4arma3ColIdEEddE9signatureERSsPKc"
 "_ZN4Rcpp12CppFunction4IddN4arma3ColIdEEddEclEPP7SEXPREC"
 "_ZN4Rcpp12CppFunction4IddN4arma3ColIdEEddED0Ev"
 "_ZN4Rcpp12CppFunction4IddN4arma3ColIdEEddED1Ev"
 "_ZN4Rcpp13RcppArmadillo9arma_wrapIN4arma3ColIdEEEEP7SEXPRECRKT_RKNS_9DimensionE"
 "_ZN4Rcpp14not_compatibleC1IIPKcEEES3_DpOT_"
 "_ZN4Rcpp14not_compatibleC1IIRKPKcEEES3_DpOT_"
 "_ZN4Rcpp14not_compatibleD0Ev"
 "_ZN4Rcpp14not_compatibleD1Ev"
 "_ZN4Rcpp15CppFunctionBaseclEPP7SEXPREC"
 "_ZN4Rcpp15CppFunctionBaseD0Ev"
 "_ZN4Rcpp15CppFunctionBaseD1Ev"
 "_ZN4Rcpp16Environment_ImplINS_15PreserveStorageEEC1ERKSs"
 "_ZN4Rcpp17finalizer_wrapperINS_12CppFunction2IdddEEXadL_ZNS_25standard_delete_finalizerIS2_EEvPT_EEEEvP7SEXPREC"
 "_ZN4Rcpp17finalizer_wrapperINS_12CppFunction4IddN4arma3ColIdEEddEEXadL_ZNS_25standard_delete_finalizerIS5_EEvPT_EEEEvP7SEXPREC"
 "_ZN4Rcpp4growINS_6traits12named_objectIdEEEEP7SEXPRECRKT_S5_"
 "_ZN4Rcpp4growINS_6traits12named_objectIiEEEEP7SEXPRECRKT_S5_"
 "_ZN4Rcpp4growINS_6traits12named_objectINS_21InternalFunction_ImplINS_15PreserveStorageEEEEEEEP7SEXPRECRKT_S8_"
 "_ZN4Rcpp4stopERKSs"
 "_ZN4Rcpp4stopIIEEEvPKcDpOT_"
 "_ZN4Rcpp6r_castILi14EEEP7SEXPRECS2_"
 "_ZN4Rcpp8internal10basic_castILi14EEEP7SEXPRECS3_"
 "_ZN4Rcpp8internal10resumeJumpEP7SEXPREC"
 "_ZN4Rcpp8internal12primitive_asIdEET_P7SEXPREC"
 "_ZN4Rcpp8internal21export_indexing__implIN4arma3ColIdEEdEEvP7SEXPRECRT_NS_6traits17integral_constantIbLb0EEE"
 "_ZN4Rcpp8internal3nthEP7SEXPRECi"
 "_ZN4Rcpp8pairlistINS_6traits12named_objectINS_21InternalFunction_ImplINS_15PreserveStorageEEEEENS2_IiEES7_NS2_IN4arma3ColIdEEEENS2_IdEESC_EEP7SEXPRECRKT_RKT0_RKT1_RKT2_RKT3_RKT4_"
 "_ZN4Rcpp8RostreamILb0EED0Ev"
 "_ZN4Rcpp8RostreamILb0EED1Ev"
 "_ZN4Rcpp8RostreamILb1EED0Ev"
 "_ZN4Rcpp8RostreamILb1EED1Ev"
 "_ZN4Rcpp9exceptionC1EPKcb"
 "_ZN4Rcpp9exceptionD0Ev"
 "_ZN4Rcpp9exceptionD1Ev"
 "_ZN4Rcpp9Rcpp_evalEP7SEXPRECS1_"
 "_ZNK4Rcpp10eval_error4whatEv"
 "_ZNK4Rcpp13BindingPolicyINS_16Environment_ImplINS_15PreserveStorageEEEE7BindingcvT_INS_13Function_ImplIS2_EEEEv"
 "_ZNK4Rcpp14not_compatible4whatEv"
 "_ZNK4Rcpp9exception4whatEv"
 "_ZNKSt5ctypeIcE8do_widenEc"
 "_ZNSt15basic_stringbufIcSt11char_traitsIcESaIcEED1Ev"
 "_ZTCN4Rcpp8RostreamILb0EEE0_So"
 "_ZTCN4Rcpp8RostreamILb1EEE0_So"
 "_ZTIN4Rcpp10eval_errorE"
 "_ZTIN4Rcpp10RstreambufILb0EEE"
 "_ZTIN4Rcpp10RstreambufILb1EEE"
 "_ZTIN4Rcpp11CppFunctionE"
 "_ZTIN4Rcpp12CppFunction2IdddEE"
 "_ZTIN4Rcpp12CppFunction4IddN4arma3ColIdEEddEE"
 "_ZTIN4Rcpp14not_compatibleE"
 "_ZTIN4Rcpp15CppFunctionBaseE"
 "_ZTIN4Rcpp17LongjumpExceptionE"
 "_ZTIN4Rcpp8internal20InterruptedExceptionE"
 "_ZTIN4Rcpp8RostreamILb0EEE"
 "_ZTIN4Rcpp8RostreamILb1EEE"
 "_ZTIN4Rcpp9exceptionE"
 "_ZTISt11logic_error"
 "_ZTISt9bad_alloc"
 "_ZTISt9exception"
 "_ZTSN4arma3ColIdEE"
 "_ZTSN4Rcpp10eval_errorE"
 "_ZTSN4Rcpp10RstreambufILb0EEE"
 "_ZTSN4Rcpp10RstreambufILb1EEE"
 "_ZTSN4Rcpp11CppFunctionE"
 "_ZTSN4Rcpp12CppFunction2IdddEE"
 "_ZTSN4Rcpp12CppFunction4IddN4arma3ColIdEEddEE"
 "_ZTSN4Rcpp14not_compatibleE"
 "_ZTSN4Rcpp15CppFunctionBaseE"
 "_ZTSN4Rcpp17LongjumpExceptionE"
 "_ZTSN4Rcpp8internal20InterruptedExceptionE"
 "_ZTSN4Rcpp8RostreamILb0EEE"
 "_ZTSN4Rcpp8RostreamILb1EEE"
 "_ZTSN4Rcpp9exceptionE"
 "_ZTSSt11logic_error"
 "_ZTSSt9bad_alloc"
 "_ZTSSt9exception"
 "_ZTTN4Rcpp8RostreamILb0EEE"
 "_ZTTN4Rcpp8RostreamILb1EEE"
 "_ZTv0_n24_N4Rcpp8RostreamILb0EED0Ev"
 "_ZTv0_n24_N4Rcpp8RostreamILb0EED1Ev"
 "_ZTv0_n24_N4Rcpp8RostreamILb1EED0Ev"
 "_ZTv0_n24_N4Rcpp8RostreamILb1EED1Ev"
 "_ZTVN4Rcpp10eval_errorE"
 "_ZTVN4Rcpp10RstreambufILb0EEE"
 "_ZTVN4Rcpp10RstreambufILb1EEE"
 "_ZTVN4Rcpp11CppFunctionE"
 "_ZTVN4Rcpp12CppFunction2IdddEE"
 "_ZTVN4Rcpp12CppFunction4IddN4arma3ColIdEEddEE"
 "_ZTVN4Rcpp14not_compatibleE"
 "_ZTVN4Rcpp8RostreamILb0EEE"
 "_ZTVN4Rcpp8RostreamILb1EEE"
 "_ZTVN4Rcpp9exceptionE"
 "_ZZ11stack_tracePKciE3fun"
 "_ZZ20rcpp_get_stack_tracevE3fun"
 "_ZZ20rcpp_set_stack_traceP7SEXPRECE3fun"
 "_ZZ7dataptrP7SEXPRECE3fun"
 "_ZZ8demangleRKSsE3fun"
 "_ZZN4arma16arma_cerr_streamIcEERSoPSoE11cerr_stream"
 "_ZZN4Rcpp12CppFunction2IdddEclEPP7SEXPRECE8stop_sym"
 "_ZZN4Rcpp12CppFunction4IddN4arma3ColIdEEddEclEPP7SEXPRECE8stop_sym"
 "_ZZN4Rcpp8internal18get_Rcpp_namespaceEvE3fun"
 "_Z11ARMAacf_cppN4arma3ColIdEES1_j"
 "_Z11seq_len_cppj"
 "_Z12ARMAtoMA_cppN4arma3ColIdEES1_i"
 "_Z12quantile_cppN4arma3ColIdEERKS1_"
 "_Z14sweep_col_meanRN4arma3MatIdEE"
 "_Z15diff_inv_valuesRKN4arma3ColIdEEjjS3_"
 "_Z15expand_grid_redi"
 "_Z3acfRN4arma3MatIdEEibb"
 "_Z7cfilterN4arma3ColIdEES1_ib"
 "_Z7dft_acfRKN4arma3ColIdEE"
 "_Z7num_repRKN4arma3ColIdEEj"
 "_Z7rfilterN4arma3ColIdEES1_S1_"
 "_Z7seq_cppii"
 "_Z8diff_cppN4arma3ColIdEEjj"
 "_Z8diff_invRKN4arma3ColIdEEjj"
 "_Z9intgr_vecRKN4arma3ColIdEES3_j"
 "_Z9mean_diffRKN4arma3ColIdEE"
 "_ZGVN4arma5DatumIdE3nanE"
 "_ZGVN4arma5DatumIiE3nanE"
 "_ZGVZ11stack_tracePKciE3fun"
 "_ZGVZ20rcpp_set_stack_traceP7SEXPRECE3fun"
 "_ZN10tinyformat6detail10formatImplERSoPKcPKNS0_9FormatArgEi"
 "_ZN10tinyformat6detail21streamStateFromFormatERSoRbRiPKcPKNS0_9FormatArgES3_i"
 "_ZN10tinyformat6formatIIEEESsPKcDpRKT_"
 "_ZN4arma10eglue_coreINS_11eglue_minusEE5applyINS_3MatIdEENS_11subview_colIdEES7_EEvRT_RKNS_5eGlueIT0_T1_S1_EE"
 "_ZN4arma10eglue_coreINS_11eglue_minusEE5applyINS_3MatIjEENS_3ColIjEES7_EEvRT_RKNS_5eGlueIT0_T1_S1_EE"
 "_ZN4arma10fft_engineISt7complexIdELb0ELj0EE11butterfly_3EPS2_jj"
 "_ZN4arma10fft_engineISt7complexIdELb0ELj0EE11butterfly_4EPS2_jj"
 "_ZN4arma10fft_engineISt7complexIdELb0ELj0EE11butterfly_5EPS2_jj"
 "_ZN4arma10fft_engineISt7complexIdELb0ELj0EE3runEPS2_PKS2_jj"
 "_ZN4arma10fft_engineISt7complexIdELb1ELj0EE11butterfly_3EPS2_jj"
 "_ZN4arma10fft_engineISt7complexIdELb1ELj0EE11butterfly_4EPS2_jj"
 "_ZN4arma10fft_engineISt7complexIdELb1ELj0EE11butterfly_5EPS2_jj"
 "_ZN4arma10fft_engineISt7complexIdELb1ELj0EE3runEPS2_PKS2_jj"
 "_ZN4arma11band_helper8compressIdEEvRNS_3MatIT_EERKS4_jjb"
 "_ZN4arma11op_fft_real5applyINS_3ColIdEEEEvRNS_3MatISt7complexINT_8pod_typeEEEERKNS_4mtOpIS8_S6_S0_EE"
 "_ZN4arma13subview_elem1IdNS_3MatIjEEE7extractERNS1_IdEERKS3_"
 "_ZN4arma13subview_elem1IjNS_3MatIjEEE7extractERS2_RKS3_"
 "_ZN4arma14glue_join_cols13apply_noaliasINS_3ColIdEENS_3GenIS3_NS_9gen_zerosEEEEEvRNS_3MatINT_9elem_typeEEERKNS_5ProxyIS8_EERKNSC_IT0_EE"
 "_ZN4arma14glue_join_cols13apply_noaliasINS_3ColIdEES3_EEvRNS_3MatINT_9elem_typeEEERKNS_5ProxyIS5_EERKNS9_IT0_EE"
 "_ZN4arma14glue_solve_gen5applyIdNS_3MatIdEES3_EEbRNS2_IT_EERKNS_4BaseIS4_T0_EERKNS7_IS4_T1_EEj"
 "_ZN4arma15gemm_emul_largeILb0ELb0ELb0ELb0EE5applyIdNS_3MatIdEES4_EEvRNS3_IT_EERKT0_RKT1_S5_S5_"
 "_ZN4arma16glue_mixed_schur5applyINS_3ColIjEENS_13subview_elem1IdNS4_IjNS_3MatIjEEEEEEEEvRNS5_INS_11eT_promoterIT_T0_E2eTEEERKNS_6mtGlueISD_SA_SB_S0_EE"
 "_ZN4arma18unwrap_check_mixedINS_3MatIjEEED1Ev"
 "_ZN4arma3ColIdEC1ERKS1_"
 "_ZN4arma3ColIdEC1INS_3GenIS1_NS_9gen_zerosEEEEERKNS_4BaseIdT_EE"
 "_ZN4arma3ColIdEC1INS_4GlueIS1_NS_3GenIS1_NS_9gen_zerosEEENS_14glue_join_colsEEEEERKNS_4BaseIdT_EE"
 "_ZN4arma3MatIdE5resetEv"
 "_ZN4arma3MatIdE9init_coldEv"
 "_ZN4arma3MatIdE9init_warmEjj"
 "_ZN4arma3MatIdE9steal_memERS1_"
 "_ZN4arma3MatIdEaSERKNS_7subviewIdEE"
 "_ZN4arma3MatIdEaSERKS1_"
 "_ZN4arma3MatIdEC1ERKS1_"
 "_ZN4arma3MatIdED1Ev"
 "_ZN4arma3MatIdED2Ev"
 "_ZN4arma3MatIjE9init_coldEv"
 "_ZN4arma3MatIjE9init_warmEjj"
 "_ZN4arma3MatIjEC1ERKS1_"
 "_ZN4arma3MatIjED1Ev"
 "_ZN4arma3MatIjED2Ev"
 "_ZN4arma3MatISt7complexIdEE5resetEv"
 "_ZN4arma3MatISt7complexIdEE9init_warmEjj"
 "_ZN4arma3MatISt7complexIdEED1Ev"
 "_ZN4arma3MatISt7complexIdEED2Ev"
 "_ZN4arma4CubeIdED1Ev"
 "_ZN4arma5DatumIdE3nanE"
 "_ZN4arma5DatumIiE3nanE"
 "_ZN4arma6auxlib16solve_approx_svdINS_3MatIdEEEEbRNS2_INT_8pod_typeEEES7_RKNS_4BaseIS5_S4_EE"
 "_ZN4arma6auxlib17solve_band_refineINS_3MatIdEEEEbRNS2_INT_8pod_typeEEERS5_S7_jjRKNS_4BaseIS5_S4_EEbb"
 "_ZN4arma6auxlib17solve_square_fastINS_3MatIdEEEEbRNS2_INT_9elem_typeEEES7_RKNS_4BaseIS5_S4_EE"
 "_ZN4arma6auxlib17solve_square_tinyINS_3MatIdEEEEbRNS2_INT_9elem_typeEEERKS6_RKNS_4BaseIS5_S4_EE"
 "_ZN4arma6auxlib18solve_sympd_refineINS_3MatIdEEEEbRNS2_INT_8pod_typeEEERS5_S7_RKNS_4BaseIS5_S4_EEbb"
 "_ZN4arma6auxlib19solve_square_refineINS_3MatIdEEEEbRNS2_INT_8pod_typeEEERS5_S7_RKNS_4BaseIS5_S4_EEbb"
 "_ZN4arma6auxlib20solve_tridiag_refineINS_3MatIdEEEEbRNS2_INT_8pod_typeEEERS5_S7_RKNS_4BaseIS5_S4_EEb"
 "_ZN4arma6auxlib25solve_tridiag_fast_commonINS_3MatIdEEEEbRNS2_INT_9elem_typeEEERKS6_RKNS_4BaseIS5_S4_EE"
 "_ZN4arma6auxlib8inv_tinyIdEEbRNS_3MatIT_EERKS4_"
 "_ZN4arma7op_sort11direct_sortIdEEvPT_jj"
 "_ZN4arma7subviewIdE10inplace_opINS_15op_internal_equEEEvRKS1_PKc"
 "_ZN4arma7subviewIdE10inplace_opINS_15op_internal_equENS_3eOpINS_3ColIdEENS_21eop_scalar_minus_postEEEEEvRKNS_4BaseIdT0_EEPKc"
 "_ZN4arma7subviewIdE10inplace_opINS_15op_internal_equENS_3eOpINS_3RowIdEENS_16eop_scalar_timesEEEEEvRKNS_4BaseIdT0_EEPKc"
 "_ZN4arma7subviewIdE10inplace_opINS_15op_internal_equENS_3MatIdEEEEvRKNS_4BaseIdT0_EEPKc"
 "_ZN4arma7subviewIdE10inplace_opINS_15op_internal_equENS_5eGlueIS1_NS_3MatIdEENS_10eglue_plusEEEEEvRKNS_4BaseIdT0_EEPKc"
 "_ZN4arma7subviewIdE7extractERNS_3MatIdEERKS1_"
 "_ZN4arma8arrayops10copy_smallIdEEvPT_PKS2_j"
 "_ZN4arma8arrayops10copy_smallIjEEvPT_PKS2_j"
 "_ZN4arma8arrayops11inplace_setIdEEvPT_S2_j"
 "_ZN4arma8arrayops11inplace_setISt7complexIdEEEvPT_S4_j"
 "_ZN4arma8arrayops17inplace_set_smallIdEEvPT_S2_j"
 "_ZN4arma8eop_coreINS_16eop_scalar_timesEE5applyINS_3MatIdEENS_3RowIdEEEEvRT_RKNS_3eOpIT0_S1_EE"
 "_ZN4arma8eop_coreINS_19eop_scalar_div_postEE5applyINS_3MatIdEENS_11subview_colIdEEEEvRT_RKNS_3eOpIT0_S1_EE"
 "_ZN4arma8eop_coreINS_19eop_scalar_div_postEE5applyINS_3MatIdEENS_3ColIdEEEEvRT_RKNS_3eOpIT0_S1_EE"
 "_ZN4arma8eop_coreINS_19eop_scalar_div_postEE5applyINS_3MatISt7complexIdEEENS_11subview_colIS6_EEEEvRT_RKNS_3eOpIT0_S1_EE"
 "_ZN4arma8eop_coreINS_21eop_scalar_minus_postEE5applyINS_3MatIdEENS_3ColIdEEEEvRT_RKNS_3eOpIT0_S1_EE"
 "_ZN4arma8podarrayISt7complexIdEE9init_warmEj"
 "_ZN4arma9op_fft_cx13apply_noaliasINS_3ColISt7complexIdEEELb1EEEvRNS_3MatINT_9elem_typeEEERKNS_5ProxyIS7_EEjj"
 "_ZN4arma9op_resize5applyINS_3MatIdEEEEvRNS2_INT_9elem_typeEEERKNS_2OpIS4_S0_EE"
 "_ZN4Rcpp10RstreambufILb0EE4syncEv"
 "_ZN4Rcpp10RstreambufILb0EE6xsputnEPKcx"
 "_ZN4Rcpp10RstreambufILb0EE8overflowEi"
 "_ZN4Rcpp10RstreambufILb0EED0Ev"
 "_ZN4Rcpp10RstreambufILb0EED1Ev"
 "_ZN4Rcpp10RstreambufILb1EE4syncEv"
 "_ZN4Rcpp10RstreambufILb1EE6xsputnEPKcx"
 "_ZN4Rcpp10RstreambufILb1EE8overflowEi"
 "_ZN4Rcpp10RstreambufILb1EED0Ev"
 "_ZN4Rcpp10RstreambufILb1EED1Ev"
 "_ZN4Rcpp4stopERKSs"
 "_ZN4Rcpp4stopIIEEEvPKcDpOT_"
 "_ZN4Rcpp8RostreamILb0EED0Ev"
 "_ZN4Rcpp8RostreamILb0EED1Ev"
 "_ZN4Rcpp8RostreamILb1EED0Ev"
 "_ZN4Rcpp8RostreamILb1EED1Ev"
 "_ZN4Rcpp9exceptionC1EPKcb"
 "_ZN4Rcpp9exceptionD0Ev"
 "_ZN4Rcpp9exceptionD1Ev"
 "_ZNK10tinyformat6detail9FormatArg5toIntEv"
 "_ZNK4Rcpp9exception4whatEv"
 "_ZNKSt5ctypeIcE8do_widenEc"
 "_ZNSt15basic_stringbufIcSt11char_traitsIcESaIcEED1Ev"
 "_ZSt13__adjust_heapIPdxdN9__gnu_cxx5__ops15_Iter_comp_iterIN4arma18arma_gt_comparatorIdEEEEEvT_T0_S9_T1_T2_"
 "_ZSt13__adjust_heapIPdxdN9__gnu_cxx5__ops15_Iter_comp_iterIN4arma18arma_lt_comparatorIdEEEEEvT_T0_S9_T1_T2_"
 "_ZSt16__introsort_loopIPdxN9__gnu_cxx5__ops15_Iter_comp_iterIN4arma18arma_gt_comparatorIdEEEEEvT_S8_T0_T1_"
 "_ZSt16__introsort_loopIPdxN9__gnu_cxx5__ops15_Iter_comp_iterIN4arma18arma_lt_comparatorIdEEEEEvT_S8_T0_T1_"
 "_ZTCN4Rcpp8RostreamILb0EEE0_So"
 "_ZTCN4Rcpp8RostreamILb1EEE0_So"
 "_ZTIN4Rcpp10RstreambufILb0EEE"
 "_ZTIN4Rcpp10RstreambufILb1EEE"
 "_ZTIN4Rcpp8RostreamILb0EEE"
 "_ZTIN4Rcpp8RostreamILb1EEE"
 "_ZTIN4Rcpp9exceptionE"
 "_ZTISt11logic_error"
 "_ZTISt13runtime_error"
 "_ZTISt9bad_alloc"
 "_ZTISt9exception"
 "_ZTSN4Rcpp10RstreambufILb0EEE"
 "_ZTSN4Rcpp10RstreambufILb1EEE"
 "_ZTSN4Rcpp8RostreamILb0EEE"
 "_ZTSN4Rcpp8RostreamILb1EEE"
 "_ZTSN4Rcpp9exceptionE"
 "_ZTSSt11logic_error"
 "_ZTSSt13runtime_error"
 "_ZTSSt9bad_alloc"
 "_ZTSSt9exception"
 "_ZTTN4Rcpp8RostreamILb0EEE"
 "_ZTTN4Rcpp8RostreamILb1EEE"
 "_ZTv0_n24_N4Rcpp8RostreamILb0EED0Ev"
 "_ZTv0_n24_N4Rcpp8RostreamILb0EED1Ev"
 "_ZTv0_n24_N4Rcpp8RostreamILb1EED0Ev"
 "_ZTv0_n24_N4Rcpp8RostreamILb1EED1Ev"
 "_ZTVN4Rcpp10RstreambufILb0EEE"
 "_ZTVN4Rcpp10RstreambufILb1EEE"
 "_ZTVN4Rcpp8RostreamILb0EEE"
 "_ZTVN4Rcpp8RostreamILb1EEE"
 "_ZTVN4Rcpp9exceptionE"
 "_ZZ11stack_tracePKciE3fun"
 "_ZZ20rcpp_set_stack_traceP7SEXPRECE3fun"
 "_ZZN4arma16arma_cerr_streamIcEERSoPSoE11cerr_stream"
 "_Z17rtruncated_normaldddd"
 "_Z17rtruncated_normaljdddd"
 "_Z20sim_truncated_normaldddd"
 "_ZGVN4arma5DatumIdE3nanE"
 "_ZGVN4arma5DatumIiE3nanE"
 "_ZN4arma5DatumIdE3nanE"
 "_ZN4arma5DatumIiE3nanE"
 "_ZN4Rcpp10RstreambufILb0EE4syncEv"
 "_ZN4Rcpp10RstreambufILb0EE6xsputnEPKcx"
 "_ZN4Rcpp10RstreambufILb0EE8overflowEi"
 "_ZN4Rcpp10RstreambufILb0EED0Ev"
 "_ZN4Rcpp10RstreambufILb0EED1Ev"
 "_ZN4Rcpp10RstreambufILb1EE4syncEv"
 "_ZN4Rcpp10RstreambufILb1EE6xsputnEPKcx"
 "_ZN4Rcpp10RstreambufILb1EE8overflowEi"
 "_ZN4Rcpp10RstreambufILb1EED0Ev"
 "_ZN4Rcpp10RstreambufILb1EED1Ev"
 "_ZN4Rcpp8RostreamILb0EED0Ev"
 "_ZN4Rcpp8RostreamILb0EED1Ev"
 "_ZN4Rcpp8RostreamILb1EED0Ev"
 "_ZN4Rcpp8RostreamILb1EED1Ev"
 "_ZTCN4Rcpp8RostreamILb0EEE0_So"
 "_ZTCN4Rcpp8RostreamILb1EEE0_So"
 "_ZTIN4Rcpp10RstreambufILb0EEE"
 "_ZTIN4Rcpp10RstreambufILb1EEE"
 "_ZTIN4Rcpp8RostreamILb0EEE"
 "_ZTIN4Rcpp8RostreamILb1EEE"
 "_ZTISt11logic_error"
 "_ZTISt9bad_alloc"
 "_ZTISt9exception"
 "_ZTSN4Rcpp10RstreambufILb0EEE"
 "_ZTSN4Rcpp10RstreambufILb1EEE"
 "_ZTSN4Rcpp8RostreamILb0EEE"
 "_ZTSN4Rcpp8RostreamILb1EEE"
 "_ZTSSt11logic_error"
 "_ZTSSt9bad_alloc"
 "_ZTSSt9exception"
 "_ZTTN4Rcpp8RostreamILb0EEE"
 "_ZTTN4Rcpp8RostreamILb1EEE"
 "_ZTv0_n24_N4Rcpp8RostreamILb0EED0Ev"
 "_ZTv0_n24_N4Rcpp8RostreamILb0EED1Ev"
 "_ZTv0_n24_N4Rcpp8RostreamILb1EED0Ev"
 "_ZTv0_n24_N4Rcpp8RostreamILb1EED1Ev"
 "_ZTVN4Rcpp10RstreambufILb0EEE"
 "_ZTVN4Rcpp10RstreambufILb1EEE"
 "_ZTVN4Rcpp8RostreamILb0EEE"
 "_ZTVN4Rcpp8RostreamILb1EEE"
 "_ZZN4arma16arma_cerr_streamIcEERSoPSoE11cerr_stream"
 "_Z14RSampleReplaceRN4arma3ColIdEEii"
 "_Z16RSampleNoReplaceRN4arma3ColIdEEii"
 "_Z18RProbSampleReplaceRN4arma3ColIdEEiiS2_"
 "_Z20RProbSampleNoReplaceRN4arma3ColIdEEiiS2_"
 "_Z24RWalkerProbSampleReplaceRN4arma3ColIdEEiiS2_"
 "_Z7rsampleRKN4arma3ColIdEEibS1_"
 "_Z8RFixProbRN4arma3ColIdEEib"
 "_ZGVN4arma5DatumIdE3nanE"
 "_ZGVN4arma5DatumIiE3nanE"
 "_ZGVN4arma5DatumIjE3nanE"
 "_ZN4arma3MatIdE5resetEv"
 "_ZN4arma3MatIdE9init_warmEjj"
 "_ZN4arma3MatIdED1Ev"
 "_ZN4arma3MatIdED2Ev"
 "_ZN4arma3MatIjE10soft_resetEv"
 "_ZN4arma3MatIjE9init_warmEjj"
 "_ZN4arma3MatIjED2Ev"
 "_ZN4arma5DatumIdE3nanE"
 "_ZN4arma5DatumIiE3nanE"
 "_ZN4arma5DatumIjE3nanE"
 "_ZN4arma8arrayops10copy_smallIdEEvPT_PKS2_j"
 "_ZN4arma8arrayops11inplace_setIjEEvPT_S2_j"
 "_ZN4Rcpp10RstreambufILb0EE4syncEv"
 "_ZN4Rcpp10RstreambufILb0EE6xsputnEPKcx"
 "_ZN4Rcpp10RstreambufILb0EE8overflowEi"
 "_ZN4Rcpp10RstreambufILb0EED0Ev"
 "_ZN4Rcpp10RstreambufILb0EED1Ev"
 "_ZN4Rcpp10RstreambufILb1EE4syncEv"
 "_ZN4Rcpp10RstreambufILb1EE6xsputnEPKcx"
 "_ZN4Rcpp10RstreambufILb1EE8overflowEi"
 "_ZN4Rcpp10RstreambufILb1EED0Ev"
 "_ZN4Rcpp10RstreambufILb1EED1Ev"
 "_ZN4Rcpp8RostreamILb0EED0Ev"
 "_ZN4Rcpp8RostreamILb0EED1Ev"
 "_ZN4Rcpp8RostreamILb1EED0Ev"
 "_ZN4Rcpp8RostreamILb1EED1Ev"
 "_ZSt13__adjust_heapIN9__gnu_cxx17__normal_iteratorIPN4arma22arma_sort_index_packetIdEESt6vectorIS4_SaIS4_EEEExS4_NS0_5__ops15_Iter_comp_iterINS2_29arma_sort_index_helper_ascendIdEEEEEvT_T0_SG_T1_T2_"
 "_ZSt13__adjust_heapIN9__gnu_cxx17__normal_iteratorIPN4arma22arma_sort_index_packetIdEESt6vectorIS4_SaIS4_EEEExS4_NS0_5__ops15_Iter_comp_iterINS2_30arma_sort_index_helper_descendIdEEEEEvT_T0_SG_T1_T2_"
 "_ZSt13__adjust_heapIPdxdN9__gnu_cxx5__ops15_Iter_comp_iterIN4arma18arma_gt_comparatorIdEEEEEvT_T0_S9_T1_T2_"
 "_ZSt16__insertion_sortIN9__gnu_cxx17__normal_iteratorIPN4arma22arma_sort_index_packetIdEESt6vectorIS4_SaIS4_EEEENS0_5__ops15_Iter_comp_iterINS2_29arma_sort_index_helper_ascendIdEEEEEvT_SF_T0_"
 "_ZSt16__insertion_sortIN9__gnu_cxx17__normal_iteratorIPN4arma22arma_sort_index_packetIdEESt6vectorIS4_SaIS4_EEEENS0_5__ops15_Iter_comp_iterINS2_30arma_sort_index_helper_descendIdEEEEEvT_SF_T0_"
 "_ZSt16__introsort_loopIN9__gnu_cxx17__normal_iteratorIPN4arma22arma_sort_index_packetIdEESt6vectorIS4_SaIS4_EEEExNS0_5__ops15_Iter_comp_iterINS2_29arma_sort_index_helper_ascendIdEEEEEvT_SF_T0_T1_"
 "_ZSt16__introsort_loopIN9__gnu_cxx17__normal_iteratorIPN4arma22arma_sort_index_packetIdEESt6vectorIS4_SaIS4_EEEExNS0_5__ops15_Iter_comp_iterINS2_30arma_sort_index_helper_descendIdEEEEEvT_SF_T0_T1_"
 "_ZSt16__introsort_loopIPdxN9__gnu_cxx5__ops15_Iter_comp_iterIN4arma18arma_gt_comparatorIdEEEEEvT_S8_T0_T1_"
 "_ZTCN4Rcpp8RostreamILb0EEE0_So"
 "_ZTCN4Rcpp8RostreamILb1EEE0_So"
 "_ZTIN4Rcpp10RstreambufILb0EEE"
 "_ZTIN4Rcpp10RstreambufILb1EEE"
 "_ZTIN4Rcpp8RostreamILb0EEE"
 "_ZTIN4Rcpp8RostreamILb1EEE"
 "_ZTISt11logic_error"
 "_ZTISt11range_error"
 "_ZTISt13runtime_error"
 "_ZTISt9bad_alloc"
 "_ZTISt9exception"
 "_ZTSN4Rcpp10RstreambufILb0EEE"
 "_ZTSN4Rcpp10RstreambufILb1EEE"
 "_ZTSN4Rcpp8RostreamILb0EEE"
 "_ZTSN4Rcpp8RostreamILb1EEE"
 "_ZTSSt11logic_error"
 "_ZTSSt11range_error"
 "_ZTSSt13runtime_error"
 "_ZTSSt9bad_alloc"
 "_ZTSSt9exception"
 "_ZTTN4Rcpp8RostreamILb0EEE"
 "_ZTTN4Rcpp8RostreamILb1EEE"
 "_ZTv0_n24_N4Rcpp8RostreamILb0EED0Ev"
 "_ZTv0_n24_N4Rcpp8RostreamILb0EED1Ev"
 "_ZTv0_n24_N4Rcpp8RostreamILb1EED0Ev"
 "_ZTv0_n24_N4Rcpp8RostreamILb1EED1Ev"
 "_ZTVN4Rcpp10RstreambufILb0EEE"
 "_ZTVN4Rcpp10RstreambufILb1EEE"
 "_ZTVN4Rcpp8RostreamILb0EEE"
 "_ZTVN4Rcpp8RostreamILb1EEE"
 "_ZZN4arma16arma_cerr_streamIcEERSoPSoE11cerr_stream"
 "_Z12sarma_expandRKN4arma3ColIdEES3_"
 "_Z13sarma_objdescRKN4arma3ColIdEES3_S3_S3_iii"
 "_Z16sarma_componentsRKN4arma3ColIdEE"
 "_Z21sarma_expand_unguidedRKN4arma3ColIdEEjjjjjjj"
 "_Z22sarma_params_constructRKN4arma3ColIdEES3_S3_S3_"
 "_Z24sarma_calculate_spaddingjjjjj"
 "_ZGVN4arma5DatumIdE3nanE"
 "_ZGVN4arma5DatumIiE3nanE"
 "_ZN4arma3MatIdED2Ev"
 "_ZN4arma5DatumIdE3nanE"
 "_ZN4arma5DatumIiE3nanE"
 "_ZN4arma5fieldINS_3ColIdEEED1Ev"
 "_ZN4arma8arrayops10copy_smallIdEEvPT_PKS2_j"
 "_ZN4arma8arrayops17inplace_set_smallIdEEvPT_S2_j"
 "_ZN4Rcpp10RstreambufILb0EE4syncEv"
 "_ZN4Rcpp10RstreambufILb0EE6xsputnEPKcx"
 "_ZN4Rcpp10RstreambufILb0EE8overflowEi"
 "_ZN4Rcpp10RstreambufILb0EED0Ev"
 "_ZN4Rcpp10RstreambufILb0EED1Ev"
 "_ZN4Rcpp10RstreambufILb1EE4syncEv"
 "_ZN4Rcpp10RstreambufILb1EE6xsputnEPKcx"
 "_ZN4Rcpp10RstreambufILb1EE8overflowEi"
 "_ZN4Rcpp10RstreambufILb1EED0Ev"
 "_ZN4Rcpp10RstreambufILb1EED1Ev"
 "_ZN4Rcpp8RostreamILb0EED0Ev"
 "_ZN4Rcpp8RostreamILb0EED1Ev"
 "_ZN4Rcpp8RostreamILb1EED0Ev"
 "_ZN4Rcpp8RostreamILb1EED1Ev"
 "_ZTCN4Rcpp8RostreamILb0EEE0_So"
 "_ZTCN4Rcpp8RostreamILb1EEE0_So"
 "_ZTIN4Rcpp10RstreambufILb0EEE"
 "_ZTIN4Rcpp10RstreambufILb1EEE"
 "_ZTIN4Rcpp8RostreamILb0EEE"
 "_ZTIN4Rcpp8RostreamILb1EEE"
 "_ZTISt11logic_error"
 "_ZTISt9bad_alloc"
 "_ZTISt9exception"
 "_ZTSN4Rcpp10RstreambufILb0EEE"
 "_ZTSN4Rcpp10RstreambufILb1EEE"
 "_ZTSN4Rcpp8RostreamILb0EEE"
 "_ZTSN4Rcpp8RostreamILb1EEE"
 "_ZTSSt11logic_error"
 "_ZTSSt9bad_alloc"
 "_ZTSSt9exception"
 "_ZTTN4Rcpp8RostreamILb0EEE"
 "_ZTTN4Rcpp8RostreamILb1EEE"
 "_ZTv0_n24_N4Rcpp8RostreamILb0EED0Ev"
 "_ZTv0_n24_N4Rcpp8RostreamILb0EED1Ev"
 "_ZTv0_n24_N4Rcpp8RostreamILb1EED0Ev"
 "_ZTv0_n24_N4Rcpp8RostreamILb1EED1Ev"
 "_ZTVN4Rcpp10RstreambufILb0EEE"
 "_ZTVN4Rcpp10RstreambufILb1EEE"
 "_ZTVN4Rcpp8RostreamILb0EEE"
 "_ZTVN4Rcpp8RostreamILb1EEE"
 "_ZZN4arma16arma_cerr_streamIcEERSoPSoE11cerr_stream"
 "_Z11get_summaryN4arma3ColIdEERKSt6vectorISsSaISsEERKNS_5fieldIS1_EESsRKS1_SC_SC_NS_3MatIdEERKSE_djdbdbbbbbbj"
 "_ZGVN4arma5DatumIdE3nanE"
 "_ZGVN4arma5DatumIiE3nanE"
 "_ZN4arma3MatIdE5resetEv"
 "_ZN4arma3MatIdE9init_warmEjj"
 "_ZN4arma3MatIdED1Ev"
 "_ZN4arma3MatIdED2Ev"
 "_ZN4arma5DatumIdE3nanE"
 "_ZN4arma5DatumIiE3nanE"
 "_ZN4arma5fieldINS_3MatIdEEED1Ev"
 "_ZN4arma8arrayops10copy_smallIdEEvPT_PKS2_j"
 "_ZN4Rcpp10RstreambufILb0EE4syncEv"
 "_ZN4Rcpp10RstreambufILb0EE6xsputnEPKcx"
 "_ZN4Rcpp10RstreambufILb0EE8overflowEi"
 "_ZN4Rcpp10RstreambufILb0EED0Ev"
 "_ZN4Rcpp10RstreambufILb0EED1Ev"
 "_ZN4Rcpp10RstreambufILb1EE4syncEv"
 "_ZN4Rcpp10RstreambufILb1EE6xsputnEPKcx"
 "_ZN4Rcpp10RstreambufILb1EE8overflowEi"
 "_ZN4Rcpp10RstreambufILb1EED0Ev"
 "_ZN4Rcpp10RstreambufILb1EED1Ev"
 "_ZN4Rcpp8RostreamILb0EED0Ev"
 "_ZN4Rcpp8RostreamILb0EED1Ev"
 "_ZN4Rcpp8RostreamILb1EED0Ev"
 "_ZN4Rcpp8RostreamILb1EED1Ev"
 "_ZTCN4Rcpp8RostreamILb0EEE0_So"
 "_ZTCN4Rcpp8RostreamILb1EEE0_So"
 "_ZTIN4Rcpp10RstreambufILb0EEE"
 "_ZTIN4Rcpp10RstreambufILb1EEE"
 "_ZTIN4Rcpp8RostreamILb0EEE"
 "_ZTIN4Rcpp8RostreamILb1EEE"
 "_ZTISt11logic_error"
 "_ZTISt9bad_alloc"
 "_ZTISt9exception"
 "_ZTSN4Rcpp10RstreambufILb0EEE"
 "_ZTSN4Rcpp10RstreambufILb1EEE"
 "_ZTSN4Rcpp8RostreamILb0EEE"
 "_ZTSN4Rcpp8RostreamILb1EEE"
 "_ZTSSt11logic_error"
 "_ZTSSt9bad_alloc"
 "_ZTSSt9exception"
 "_ZTTN4Rcpp8RostreamILb0EEE"
 "_ZTTN4Rcpp8RostreamILb1EEE"
 "_ZTv0_n24_N4Rcpp8RostreamILb0EED0Ev"
 "_ZTv0_n24_N4Rcpp8RostreamILb0EED1Ev"
 "_ZTv0_n24_N4Rcpp8RostreamILb1EED0Ev"
 "_ZTv0_n24_N4Rcpp8RostreamILb1EED1Ev"
 "_ZTVN4Rcpp10RstreambufILb0EEE"
 "_ZTVN4Rcpp10RstreambufILb1EEE"
 "_ZTVN4Rcpp8RostreamILb0EEE"
 "_ZTVN4Rcpp8RostreamILb1EEE"
 "_ZZN4arma16arma_cerr_streamIcEERSoPSoE11cerr_stream"
 "_Z10logit2_invd"
 "_Z10logit2_invRKN4arma3ColIdEE"
 "_Z12pseudo_logitd"
 "_Z12pseudo_logitRKN4arma3ColIdEE"
 "_Z16pseudo_logit_invd"
 "_Z16pseudo_logit_invRKN4arma3ColIdEE"
 "_Z16transform_valuesRKN4arma3ColIdEERKSt6vectorISsSaISsEERKNS_5fieldIS1_EESs"
 "_Z18untransform_valuesRKN4arma3ColIdEERKSt6vectorISsSaISsEERKNS_5fieldIS1_EESs"
 "_Z5logitd"
 "_Z5logitRKN4arma3ColIdEE"
 "_Z6logit2d"
 "_Z6logit2RKN4arma3ColIdEE"
 "_Z9logit_invd"
 "_Z9logit_invRKN4arma3ColIdEE"
 "_ZGVN4arma5DatumIdE3nanE"
 "_ZGVN4arma5DatumIiE3nanE"
 "_ZN4arma3ColIdEC1INS_7subviewIdEEEERKNS_4BaseIdT_EE"
 "_ZN4arma3MatIdE9init_warmEjj"
 "_ZN4arma3MatIdED2Ev"
 "_ZN4arma5DatumIdE3nanE"
 "_ZN4arma5DatumIiE3nanE"
 "_ZN4arma7subviewIdE10inplace_opINS_15op_internal_equENS_3MatIdEEEEvRKNS_4BaseIdT0_EEPKc"
 "_ZN4arma8arrayops10copy_smallIdEEvPT_PKS2_j"
 "_ZN4arma8arrayops17inplace_set_smallIdEEvPT_S2_j"
 "_ZN4Rcpp10RstreambufILb0EE4syncEv"
 "_ZN4Rcpp10RstreambufILb0EE6xsputnEPKcx"
 "_ZN4Rcpp10RstreambufILb0EE8overflowEi"
 "_ZN4Rcpp10RstreambufILb0EED0Ev"
 "_ZN4Rcpp10RstreambufILb0EED1Ev"
 "_ZN4Rcpp10RstreambufILb1EE4syncEv"
 "_ZN4Rcpp10RstreambufILb1EE6xsputnEPKcx"
 "_ZN4Rcpp10RstreambufILb1EE8overflowEi"
 "_ZN4Rcpp10RstreambufILb1EED0Ev"
 "_ZN4Rcpp10RstreambufILb1EED1Ev"
 "_ZN4Rcpp8RostreamILb0EED0Ev"
 "_ZN4Rcpp8RostreamILb0EED1Ev"
 "_ZN4Rcpp8RostreamILb1EED0Ev"
 "_ZN4Rcpp8RostreamILb1EED1Ev"
 "_ZTCN4Rcpp8RostreamILb0EEE0_So"
 "_ZTCN4Rcpp8RostreamILb1EEE0_So"
 "_ZTIN4Rcpp10RstreambufILb0EEE"
 "_ZTIN4Rcpp10RstreambufILb1EEE"
 "_ZTIN4Rcpp8RostreamILb0EEE"
 "_ZTIN4Rcpp8RostreamILb1EEE"
 "_ZTISt11logic_error"
 "_ZTISt9bad_alloc"
 "_ZTISt9exception"
 "_ZTSN4Rcpp10RstreambufILb0EEE"
 "_ZTSN4Rcpp10RstreambufILb1EEE"
 "_ZTSN4Rcpp8RostreamILb0EEE"
 "_ZTSN4Rcpp8RostreamILb1EEE"
 "_ZTSSt11logic_error"
 "_ZTSSt9bad_alloc"
 "_ZTSSt9exception"
 "_ZTTN4Rcpp8RostreamILb0EEE"
 "_ZTTN4Rcpp8RostreamILb1EEE"
 "_ZTv0_n24_N4Rcpp8RostreamILb0EED0Ev"
 "_ZTv0_n24_N4Rcpp8RostreamILb0EED1Ev"
 "_ZTv0_n24_N4Rcpp8RostreamILb1EED0Ev"
 "_ZTv0_n24_N4Rcpp8RostreamILb1EED1Ev"
 "_ZTVN4Rcpp10RstreambufILb0EEE"
 "_ZTVN4Rcpp10RstreambufILb1EEE"
 "_ZTVN4Rcpp8RostreamILb0EEE"
 "_ZTVN4Rcpp8RostreamILb1EEE"
 "_ZZN4arma16arma_cerr_streamIcEERSoPSoE11cerr_stream"
 "_Z10order_AR1sN4arma3ColIdEERKSt6vectorISsSaISsEENS_5fieldIS1_EE"
 "_Z12calc_map_sumRKSt3mapISsiSt4lessISsESaISt4pairIKSsiEEE"
 "_Z12count_modelsRKSt6vectorISsSaISsEE"
 "_Z12invert_checkRKN4arma3ColIdEE"
 "_Z7map_acciRKSt4pairISsiE"
 "_Z7minrootRKN4arma3ColISt7complexIdEEE"
 "_ZGVN4arma5DatumIdE3nanE"
 "_ZGVN4arma5DatumIiE3nanE"
 "_ZN4arma3MatIdED2Ev"
 "_ZN4arma3MatISt7complexIdEED2Ev"
 "_ZN4arma5DatumIdE3nanE"
 "_ZN4arma5DatumIiE3nanE"
 "_ZN4Rcpp10RstreambufILb0EE4syncEv"
 "_ZN4Rcpp10RstreambufILb0EE6xsputnEPKcx"
 "_ZN4Rcpp10RstreambufILb0EE8overflowEi"
 "_ZN4Rcpp10RstreambufILb0EED0Ev"
 "_ZN4Rcpp10RstreambufILb0EED1Ev"
 "_ZN4Rcpp10RstreambufILb1EE4syncEv"
 "_ZN4Rcpp10RstreambufILb1EE6xsputnEPKcx"
 "_ZN4Rcpp10RstreambufILb1EE8overflowEi"
 "_ZN4Rcpp10RstreambufILb1EED0Ev"
 "_ZN4Rcpp10RstreambufILb1EED1Ev"
 "_ZN4Rcpp8RostreamILb0EED0Ev"
 "_ZN4Rcpp8RostreamILb0EED1Ev"
 "_ZN4Rcpp8RostreamILb1EED0Ev"
 "_ZN4Rcpp8RostreamILb1EED1Ev"
 "_ZNSt8_Rb_treeISsSt4pairIKSsiESt10_Select1stIS2_ESt4lessISsESaIS2_EE14_M_insert_nodeEPSt18_Rb_tree_node_baseSA_PSt13_Rb_tree_nodeIS2_E"
 "_ZNSt8_Rb_treeISsSt4pairIKSsiESt10_Select1stIS2_ESt4lessISsESaIS2_EE22_M_emplace_hint_uniqueIIRKSt21piecewise_construct_tSt5tupleIIOSsEESD_IIEEEEESt17_Rb_tree_iteratorIS2_ESt23_Rb_tree_const_iteratorIS2_EDpOT_"
 "_ZNSt8_Rb_treeISsSt4pairIKSsiESt10_Select1stIS2_ESt4lessISsESaIS2_EE22_M_emplace_hint_uniqueIIRKSt21piecewise_construct_tSt5tupleIIRS1_EESD_IIEEEEESt17_Rb_tree_iteratorIS2_ESt23_Rb_tree_const_iteratorIS2_EDpOT_"
 "_ZNSt8_Rb_treeISsSt4pairIKSsiESt10_Select1stIS2_ESt4lessISsESaIS2_EE24_M_get_insert_unique_posERS1_"
 "_ZNSt8_Rb_treeISsSt4pairIKSsiESt10_Select1stIS2_ESt4lessISsESaIS2_EE29_M_get_insert_hint_unique_posESt23_Rb_tree_const_iteratorIS2_ERS1_"
 "_ZNSt8_Rb_treeISsSt4pairIKSsiESt10_Select1stIS2_ESt4lessISsESaIS2_EE8_M_eraseEPSt13_Rb_tree_nodeIS2_E"
 "_ZTCN4Rcpp8RostreamILb0EEE0_So"
 "_ZTCN4Rcpp8RostreamILb1EEE0_So"
 "_ZTIN4Rcpp10RstreambufILb0EEE"
 "_ZTIN4Rcpp10RstreambufILb1EEE"
 "_ZTIN4Rcpp8RostreamILb0EEE"
 "_ZTIN4Rcpp8RostreamILb1EEE"
 "_ZTISt11logic_error"
 "_ZTISt9bad_alloc"
 "_ZTISt9exception"
 "_ZTSN4Rcpp10RstreambufILb0EEE"
 "_ZTSN4Rcpp10RstreambufILb1EEE"
 "_ZTSN4Rcpp8RostreamILb0EEE"
 "_ZTSN4Rcpp8RostreamILb1EEE"
 "_ZTSSt11logic_error"
 "_ZTSSt9bad_alloc"
 "_ZTSSt9exception"
 "_ZTTN4Rcpp8RostreamILb0EEE"
 "_ZTTN4Rcpp8RostreamILb1EEE"
 "_ZTv0_n24_N4Rcpp8RostreamILb0EED0Ev"
 "_ZTv0_n24_N4Rcpp8RostreamILb0EED1Ev"
 "_ZTv0_n24_N4Rcpp8RostreamILb1EED0Ev"
 "_ZTv0_n24_N4Rcpp8RostreamILb1EED1Ev"
 "_ZTVN4Rcpp10RstreambufILb0EEE"
 "_ZTVN4Rcpp10RstreambufILb1EEE"
 "_ZTVN4Rcpp8RostreamILb0EEE"
 "_ZTVN4Rcpp8RostreamILb1EEE"
 "_ZZN4arma16arma_cerr_streamIcEERSoPSoE11cerr_stream"
 "_Z11model_thetaSt6vectorISsSaISsEE"
 "_Z13model_objdescSt6vectorISsSaISsEE"
 "_Z18model_process_descSt6vectorISsSaISsEE"
 "_Z9ar1_to_gmN4arma3ColIdEEd"
 "_Z9gm_to_ar1N4arma3ColIdEEd"
 "_ZGVN4arma5DatumIdE3nanE"
 "_ZGVN4arma5DatumIiE3nanE"
 "_ZGVZ11stack_tracePKciE3fun"
 "_ZGVZ20rcpp_set_stack_traceP7SEXPRECE3fun"
 "_ZN10tinyformat6detail10formatImplERSoPKcPKNS0_9FormatArgEi"
 "_ZN10tinyformat6detail21streamStateFromFormatERSoRbRiPKcPKNS0_9FormatArgES3_i"
 "_ZN10tinyformat6formatIIEEESsPKcDpRKT_"
 "_ZN4arma3MatIdED2Ev"
 "_ZN4arma5DatumIdE3nanE"
 "_ZN4arma5DatumIiE3nanE"
 "_ZN4arma5fieldINS_3ColIdEEED1Ev"
 "_ZN4arma8arrayops10copy_smallIdEEvPT_PKS2_j"
 "_ZN4arma8arrayops17inplace_set_smallIdEEvPT_S2_j"
 "_ZN4Rcpp10RstreambufILb0EE4syncEv"
 "_ZN4Rcpp10RstreambufILb0EE6xsputnEPKcx"
 "_ZN4Rcpp10RstreambufILb0EE8overflowEi"
 "_ZN4Rcpp10RstreambufILb0EED0Ev"
 "_ZN4Rcpp10RstreambufILb0EED1Ev"
 "_ZN4Rcpp10RstreambufILb1EE4syncEv"
 "_ZN4Rcpp10RstreambufILb1EE6xsputnEPKcx"
 "_ZN4Rcpp10RstreambufILb1EE8overflowEi"
 "_ZN4Rcpp10RstreambufILb1EED0Ev"
 "_ZN4Rcpp10RstreambufILb1EED1Ev"
 "_ZN4Rcpp4stopERKSs"
 "_ZN4Rcpp4stopIIEEEvPKcDpOT_"
 "_ZN4Rcpp8RostreamILb0EED0Ev"
 "_ZN4Rcpp8RostreamILb0EED1Ev"
 "_ZN4Rcpp8RostreamILb1EED0Ev"
 "_ZN4Rcpp8RostreamILb1EED1Ev"
 "_ZN4Rcpp9exceptionC1EPKcb"
 "_ZN4Rcpp9exceptionD0Ev"
 "_ZN4Rcpp9exceptionD1Ev"
 "_ZNK4Rcpp9exception4whatEv"
 "_ZNKSt5ctypeIcE8do_widenEc"
 "_ZNSt15basic_stringbufIcSt11char_traitsIcESaIcEED1Ev"
 "_ZNSt6vectorISsSaISsEE12emplace_backIISsEEEvDpOT_"
 "_ZNSt6vectorISsSaISsEE19_M_emplace_back_auxIIRKSsEEEvDpOT_"
 "_ZNSt6vectorISsSaISsEE19_M_emplace_back_auxIISsEEEvDpOT_"
 "_ZTCN4Rcpp8RostreamILb0EEE0_So"
 "_ZTCN4Rcpp8RostreamILb1EEE0_So"
 "_ZTIN4Rcpp10RstreambufILb0EEE"
 "_ZTIN4Rcpp10RstreambufILb1EEE"
 "_ZTIN4Rcpp8RostreamILb0EEE"
 "_ZTIN4Rcpp8RostreamILb1EEE"
 "_ZTIN4Rcpp9exceptionE"
 "_ZTISt11logic_error"
 "_ZTISt9bad_alloc"
 "_ZTISt9exception"
 "_ZTSN4Rcpp10RstreambufILb0EEE"
 "_ZTSN4Rcpp10RstreambufILb1EEE"
 "_ZTSN4Rcpp8RostreamILb0EEE"
 "_ZTSN4Rcpp8RostreamILb1EEE"
 "_ZTSN4Rcpp9exceptionE"
 "_ZTSSt11logic_error"
 "_ZTSSt9bad_alloc"
 "_ZTSSt9exception"
 "_ZTTN4Rcpp8RostreamILb0EEE"
 "_ZTTN4Rcpp8RostreamILb1EEE"
 "_ZTv0_n24_N4Rcpp8RostreamILb0EED0Ev"
 "_ZTv0_n24_N4Rcpp8RostreamILb0EED1Ev"
 "_ZTv0_n24_N4Rcpp8RostreamILb1EED0Ev"
 "_ZTv0_n24_N4Rcpp8RostreamILb1EED1Ev"
 "_ZTVN4Rcpp10RstreambufILb0EEE"
 "_ZTVN4Rcpp10RstreambufILb1EEE"
 "_ZTVN4Rcpp8RostreamILb0EEE"
 "_ZTVN4Rcpp8RostreamILb1EEE"
 "_ZTVN4Rcpp9exceptionE"
 "_ZZ11stack_tracePKciE3fun"
 "_ZZ20rcpp_set_stack_traceP7SEXPRECE3fun"
 "_ZZN4arma16arma_cerr_streamIcEERSoPSoE11cerr_stream"
 "_Z10scales_cppj"
 "_Z13wave_varianceRKN4arma5fieldINS_3ColIdEEEEbd"
 "_Z14ci_eta3_robustRKN4arma3ColIdEERKNS_3MatIdEEdd"
 "_Z14modwt_wvar_cppRKN4arma3ColIdEEjbddSsSsSs"
 "_Z16ci_wave_varianceRKN4arma5fieldINS_3ColIdEEEERKS2_Ssdbd"
 "_Z20batch_modwt_wvar_cppRKN4arma3MatIdEEjbddSsSsSs"
 "_Z7ci_eta3RKN4arma3ColIdEES3_d"
 "_Z8wvar_cppRKN4arma5fieldINS_3ColIdEEEEbddSs"
 "_ZGVN4arma5DatumIdE3nanE"
 "_ZGVN4arma5DatumIiE3nanE"
 "_ZGVZ11stack_tracePKciE3fun"
 "_ZGVZ20rcpp_set_stack_traceP7SEXPRECE3fun"
 "_ZN10tinyformat6detail10formatImplERSoPKcPKNS0_9FormatArgEi"
 "_ZN10tinyformat6detail21streamStateFromFormatERSoRbRiPKcPKNS0_9FormatArgES3_i"
 "_ZN10tinyformat6formatIIEEESsPKcDpRKT_"
 "_ZN4arma3MatIdE5resetEv"
 "_ZN4arma3MatIdE9init_warmEjj"
 "_ZN4arma3MatIdED1Ev"
 "_ZN4arma3MatIdED2Ev"
 "_ZN4arma5DatumIdE3nanE"
 "_ZN4arma5DatumIiE3nanE"
 "_ZN4arma5fieldINS_3ColIdEEED1Ev"
 "_ZN4arma5fieldINS_3MatIdEEED1Ev"
 "_ZN4arma8arrayops10copy_smallIdEEvPT_PKS2_j"
 "_ZN4arma8arrayops10copy_smallIPNS_3ColIdEEEEvPT_PKS5_j"
 "_ZN4Rcpp10RstreambufILb0EE4syncEv"
 "_ZN4Rcpp10RstreambufILb0EE6xsputnEPKcx"
 "_ZN4Rcpp10RstreambufILb0EE8overflowEi"
 "_ZN4Rcpp10RstreambufILb0EED0Ev"
 "_ZN4Rcpp10RstreambufILb0EED1Ev"
 "_ZN4Rcpp10RstreambufILb1EE4syncEv"
 "_ZN4Rcpp10RstreambufILb1EE6xsputnEPKcx"
 "_ZN4Rcpp10RstreambufILb1EE8overflowEi"
 "_ZN4Rcpp10RstreambufILb1EED0Ev"
 "_ZN4Rcpp10RstreambufILb1EED1Ev"
 "_ZN4Rcpp4stopERKSs"
 "_ZN4Rcpp4stopIIEEEvPKcDpOT_"
 "_ZN4Rcpp8RostreamILb0EED0Ev"
 "_ZN4Rcpp8RostreamILb0EED1Ev"
 "_ZN4Rcpp8RostreamILb1EED0Ev"
 "_ZN4Rcpp8RostreamILb1EED1Ev"
 "_ZN4Rcpp9exceptionC1EPKcb"
 "_ZN4Rcpp9exceptionD0Ev"
 "_ZN4Rcpp9exceptionD1Ev"
 "_ZNK4Rcpp9exception4whatEv"
 "_ZNKSt5ctypeIcE8do_widenEc"
 "_ZNSt15basic_stringbufIcSt11char_traitsIcESaIcEED1Ev"
 "_ZSt13__adjust_heapIPdxdN9__gnu_cxx5__ops15_Iter_comp_iterIN4arma18arma_gt_comparatorIdEEEEEvT_T0_S9_T1_T2_"
 "_ZSt13__adjust_heapIPdxdN9__gnu_cxx5__ops15_Iter_comp_iterIN4arma18arma_lt_comparatorIdEEEEEvT_T0_S9_T1_T2_"
 "_ZSt16__introsort_loopIPdxN9__gnu_cxx5__ops15_Iter_comp_iterIN4arma18arma_gt_comparatorIdEEEEEvT_S8_T0_T1_"
 "_ZSt16__introsort_loopIPdxN9__gnu_cxx5__ops15_Iter_comp_iterIN4arma18arma_lt_comparatorIdEEEEEvT_S8_T0_T1_"
 "_ZTCN4Rcpp8RostreamILb0EEE0_So"
 "_ZTCN4Rcpp8RostreamILb1EEE0_So"
 "_ZTIN4Rcpp10RstreambufILb0EEE"
 "_ZTIN4Rcpp10RstreambufILb1EEE"
 "_ZTIN4Rcpp8RostreamILb0EEE"
 "_ZTIN4Rcpp8RostreamILb1EEE"
 "_ZTIN4Rcpp9exceptionE"
 "_ZTISt11logic_error"
 "_ZTISt9bad_alloc"
 "_ZTISt9exception"
 "_ZTSN4Rcpp10RstreambufILb0EEE"
 "_ZTSN4Rcpp10RstreambufILb1EEE"
 "_ZTSN4Rcpp8RostreamILb0EEE"
 "_ZTSN4Rcpp8RostreamILb1EEE"
 "_ZTSN4Rcpp9exceptionE"
 "_ZTSSt11logic_error"
 "_ZTSSt9bad_alloc"
 "_ZTSSt9exception"
 "_ZTTN4Rcpp8RostreamILb0EEE"
 "_ZTTN4Rcpp8RostreamILb1EEE"
 "_ZTv0_n24_N4Rcpp8RostreamILb0EED0Ev"
 "_ZTv0_n24_N4Rcpp8RostreamILb0EED1Ev"
 "_ZTv0_n24_N4Rcpp8RostreamILb1EED0Ev"
 "_ZTv0_n24_N4Rcpp8RostreamILb1EED1Ev"
 "_ZTVN4Rcpp10RstreambufILb0EEE"
 "_ZTVN4Rcpp10RstreambufILb1EEE"
 "_ZTVN4Rcpp8RostreamILb0EEE"
 "_ZTVN4Rcpp8RostreamILb1EEE"
 "_ZTVN4Rcpp9exceptionE"
 "_ZZ11stack_tracePKciE3fun"
 "_ZZ20rcpp_set_stack_traceP7SEXPRECE3fun"
 "_ZZN4arma16arma_cerr_streamIcEERSoPSoE11cerr_stream"
 "_Z10d16_filterv"
 "_Z10fk4_filterv"
 "_Z10fk6_filterv"
 "_Z10fk8_filterv"
 "_Z10la8_filterv"
 "_Z10mb4_filterv"
 "_Z10mb8_filterv"
 "_Z11bl14_filterv"
 "_Z11bl20_filterv"
 "_Z11fk14_filterv"
 "_Z11fk22_filterv"
 "_Z11haar_filterv"
 "_Z11la16_filterv"
 "_Z11la20_filterv"
 "_Z11mb16_filterv"
 "_Z11mb24_filterv"
 "_Z13select_filterSs"
 "_Z3qmfN4arma3ColIdEEb"
 "_Z9d4_filterv"
 "_Z9d6_filterv"
 "_Z9d8_filterv"
 "_Z9w4_filterv"
 "_ZGVN4arma5DatumIdE3nanE"
 "_ZGVN4arma5DatumIiE3nanE"
 "_ZGVZ11stack_tracePKciE3fun"
 "_ZGVZ20rcpp_set_stack_traceP7SEXPRECE3fun"
 "_ZN10tinyformat6detail10formatImplERSoPKcPKNS0_9FormatArgEi"
 "_ZN10tinyformat6detail21streamStateFromFormatERSoRbRiPKcPKNS0_9FormatArgES3_i"
 "_ZN10tinyformat6formatIIEEESsPKcDpRKT_"
 "_ZN1A10create_mapEv"
 "_ZN1A9filterMapE"
 "_ZN4arma3MatIdEaSERKS1_"
 "_ZN4arma3MatIdED2Ev"
 "_ZN4arma5DatumIdE3nanE"
 "_ZN4arma5DatumIiE3nanE"
 "_ZN4arma5fieldINS_3ColIdEEED1Ev"
 "_ZN4arma8arrayops10copy_smallIdEEvPT_PKS2_j"
 "_ZN4Rcpp10RstreambufILb0EE4syncEv"
 "_ZN4Rcpp10RstreambufILb0EE6xsputnEPKcx"
 "_ZN4Rcpp10RstreambufILb0EE8overflowEi"
 "_ZN4Rcpp10RstreambufILb0EED0Ev"
 "_ZN4Rcpp10RstreambufILb0EED1Ev"
 "_ZN4Rcpp10RstreambufILb1EE4syncEv"
 "_ZN4Rcpp10RstreambufILb1EE6xsputnEPKcx"
 "_ZN4Rcpp10RstreambufILb1EE8overflowEi"
 "_ZN4Rcpp10RstreambufILb1EED0Ev"
 "_ZN4Rcpp10RstreambufILb1EED1Ev"
 "_ZN4Rcpp4stopERKSs"
 "_ZN4Rcpp4stopIIEEEvPKcDpOT_"
 "_ZN4Rcpp8RostreamILb0EED0Ev"
 "_ZN4Rcpp8RostreamILb0EED1Ev"
 "_ZN4Rcpp8RostreamILb1EED0Ev"
 "_ZN4Rcpp8RostreamILb1EED1Ev"
 "_ZN4Rcpp9exceptionC1EPKcb"
 "_ZN4Rcpp9exceptionD0Ev"
 "_ZN4Rcpp9exceptionD1Ev"
 "_ZNK4Rcpp9exception4whatEv"
 "_ZNKSt5ctypeIcE8do_widenEc"
 "_ZNSt15basic_stringbufIcSt11char_traitsIcESaIcEED1Ev"
 "_ZNSt3mapISsPFN4arma5fieldINS0_3ColIdEEEEvESt4lessISsESaISt4pairIKSsS6_EEEixEOSs"
 "_ZNSt8_Rb_treeISsSt4pairIKSsPFN4arma5fieldINS2_3ColIdEEEEvEESt10_Select1stIS9_ESt4lessISsESaIS9_EE22_M_emplace_hint_uniqueIIRKSt21piecewise_construct_tSt5tupleIIOSsEESK_IIEEEEESt17_Rb_tree_iteratorIS9_ESt23_Rb_tree_const_iteratorIS9_EDpOT_"
 "_ZNSt8_Rb_treeISsSt4pairIKSsPFN4arma5fieldINS2_3ColIdEEEEvEESt10_Select1stIS9_ESt4lessISsESaIS9_EE24_M_get_insert_unique_posERS1_"
 "_ZNSt8_Rb_treeISsSt4pairIKSsPFN4arma5fieldINS2_3ColIdEEEEvEESt10_Select1stIS9_ESt4lessISsESaIS9_EE8_M_eraseEPSt13_Rb_tree_nodeIS9_E"
 "_ZTCN4Rcpp8RostreamILb0EEE0_So"
 "_ZTCN4Rcpp8RostreamILb1EEE0_So"
 "_ZTIN4Rcpp10RstreambufILb0EEE"
 "_ZTIN4Rcpp10RstreambufILb1EEE"
 "_ZTIN4Rcpp8RostreamILb0EEE"
 "_ZTIN4Rcpp8RostreamILb1EEE"
 "_ZTIN4Rcpp9exceptionE"
 "_ZTISt11logic_error"
 "_ZTISt9bad_alloc"
 "_ZTISt9exception"
 "_ZTSN4Rcpp10RstreambufILb0EEE"
 "_ZTSN4Rcpp10RstreambufILb1EEE"
 "_ZTSN4Rcpp8RostreamILb0EEE"
 "_ZTSN4Rcpp8RostreamILb1EEE"
 "_ZTSN4Rcpp9exceptionE"
 "_ZTSSt11logic_error"
 "_ZTSSt9bad_alloc"
 "_ZTSSt9exception"
 "_ZTTN4Rcpp8RostreamILb0EEE"
 "_ZTTN4Rcpp8RostreamILb1EEE"
 "_ZTv0_n24_N4Rcpp8RostreamILb0EED0Ev"
 "_ZTv0_n24_N4Rcpp8RostreamILb0EED1Ev"
 "_ZTv0_n24_N4Rcpp8RostreamILb1EED0Ev"
 "_ZTv0_n24_N4Rcpp8RostreamILb1EED1Ev"
 "_ZTVN4Rcpp10RstreambufILb0EEE"
 "_ZTVN4Rcpp10RstreambufILb1EEE"
 "_ZTVN4Rcpp8RostreamILb0EEE"
 "_ZTVN4Rcpp8RostreamILb1EEE"
 "_ZTVN4Rcpp9exceptionE"
 "_ZZ11stack_tracePKciE3fun"
 "_ZZ20rcpp_set_stack_traceP7SEXPRECE3fun"
 "_ZZN4arma16arma_cerr_streamIcEERSoPSoE11cerr_stream"
